///////////////////////////////////////////////////////////////////////////////
//                                                                            /
// IAR C/C++ Compiler V8.10.3.10338/W32 for 8051        04/Jul/2018  22:34:44 /
// Copyright 2004-2011 IAR Systems AB.                                        /
//                                                                            /
//    Core               =  plain                                             /
//    Code model         =  banked                                            /
//    Data model         =  large                                             /
//    Calling convention =  xdata reentrant                                   /
//    Constant location  =  data_rom                                          /
//    Dptr setup         =  1,16                                              /
//    Source file        =  C:\ZigBee\SmartHomeApp\Projects\zstack\Samples\Sm /
//                          artHomeApp\Source\DoorLight.c                     /
//    Command line       =  -f C:\ZigBee\SmartHomeApp\Projects\zstack\Samples /
//                          \SmartHomeApp\CC2530DB\..\..\..\Tools\CC2530DB\f8 /
//                          wCoord.cfg (-DCPU32MHZ -DROOT=__near_func         /
//                          -DMAC_CFG_APP_PENDING_QUEUE=TRUE                  /
//                          -DMAC_CFG_TX_DATA_MAX=5 -DMAC_CFG_TX_MAX=8        /
//                          -DMAC_CFG_RX_MAX=5 -DZDO_COORDINATOR -DRTR_NWK)   /
//                          -f C:\ZigBee\SmartHomeApp\Projects\zstack\Samples /
//                          \SmartHomeApp\CC2530DB\..\..\..\Tools\CC2530DB\f8 /
//                          wConfig.cfg (-DZIGBEEPRO -DSECURE=0               /
//                          -DZG_SECURE_DYNAMIC=0 -DREFLECTOR                 /
//                          -DDEFAULT_CHANLIST=0x00002000                     /
//                          -DZDAPP_CONFIG_PAN_ID=0xF227                      /
//                          -DNWK_START_DELAY=100 -DEXTENDED_JOINING_RANDOM_M /
//                          ASK=0x007F -DBEACON_REQUEST_DELAY=100             /
//                          -DBEACON_REQ_DELAY_MASK=0x00FF                    /
//                          -DLINK_STATUS_JITTER_MASK=0x007F                  /
//                          -DROUTE_EXPIRY_TIME=30 -DAPSC_ACK_WAIT_DURATION_P /
//                          OLLED=3000 -DNWK_INDIRECT_MSG_TIMEOUT=7           /
//                          -DMAX_RREQ_ENTRIES=8 -DAPSC_MAX_FRAME_RETRIES=3   /
//                          -DNWK_MAX_DATA_RETRIES=2                          /
//                          -DMAX_POLL_FAILURE_RETRIES=2 -DMAX_BCAST=9        /
//                          -DAPS_MAX_GROUPS=16 -DMAX_RTG_ENTRIES=40          /
//                          -DNWK_MAX_BINDING_ENTRIES=4                       /
//                          -DMAX_BINDING_CLUSTER_IDS=4                       /
//                          "-DDEFAULT_KEY={0x01, 0x03, 0x05, 0x07, 0x09,     /
//                          0x0B, 0x0D, 0x0F, 0x00, 0x02, 0x04, 0x06, 0x08,   /
//                          0x0A, 0x0C, 0x0D}" -DMAC_MAX_FRAME_SIZE=116       /
//                          -DZDNWKMGR_MIN_TRANSMISSIONS=20 "-DCONST=const    /
//                          __code" -DGENERIC=__generic                       /
//                          -DRFD_RCVC_ALWAYS_ON=FALSE -DPOLL_RATE=1000       /
//                          -DQUEUED_POLL_RATE=100 -DRESPONSE_POLL_RATE=100)  /
//                          -DREJOIN_POLL_RATE=440 C:\ZigBee\SmartHomeApp\Pro /
//                          jects\zstack\Samples\SmartHomeApp\Source\DoorLigh /
//                          t.c -D ZTOOL_P1 -D MT_TASK -D MT_SYS_FUNC -D      /
//                          MT_ZDO_FUNC -D xLCD_SUPPORTED=DEBUG -lC           /
//                          C:\ZigBee\SmartHomeApp\Projects\zstack\Samples\Sm /
//                          artHomeApp\CC2530DB\CoordinatorEB\List\ -lA       /
//                          C:\ZigBee\SmartHomeApp\Projects\zstack\Samples\Sm /
//                          artHomeApp\CC2530DB\CoordinatorEB\List\           /
//                          --diag_suppress Pe001,Pa010 -o                    /
//                          C:\ZigBee\SmartHomeApp\Projects\zstack\Samples\Sm /
//                          artHomeApp\CC2530DB\CoordinatorEB\Obj\ -e         /
//                          --no_code_motion --debug --core=plain             /
//                          --dptr=16,1 --data_model=large                    /
//                          --code_model=banked --calling_convention=xdata_re /
//                          entrant --place_constants=data_rom                /
//                          --nr_virtual_regs 16 -I                           /
//                          C:\ZigBee\SmartHomeApp\Projects\zstack\Samples\Sm /
//                          artHomeApp\CC2530DB\ -I                           /
//                          C:\ZigBee\SmartHomeApp\Projects\zstack\Samples\Sm /
//                          artHomeApp\CC2530DB\..\Source\ -I                 /
//                          C:\ZigBee\SmartHomeApp\Projects\zstack\Samples\Sm /
//                          artHomeApp\CC2530DB\..\..\..\ZMain\TI2530DB\ -I   /
//                          C:\ZigBee\SmartHomeApp\Projects\zstack\Samples\Sm /
//                          artHomeApp\CC2530DB\..\..\..\..\..\Components\hal /
//                          \include\ -I C:\ZigBee\SmartHomeApp\Projects\zsta /
//                          ck\Samples\SmartHomeApp\CC2530DB\..\..\..\..\..\C /
//                          omponents\hal\target\CC2530EB\ -I                 /
//                          C:\ZigBee\SmartHomeApp\Projects\zstack\Samples\Sm /
//                          artHomeApp\CC2530DB\..\..\..\..\..\Components\mac /
//                          \include\ -I C:\ZigBee\SmartHomeApp\Projects\zsta /
//                          ck\Samples\SmartHomeApp\CC2530DB\..\..\..\..\..\C /
//                          omponents\mac\high_level\ -I                      /
//                          C:\ZigBee\SmartHomeApp\Projects\zstack\Samples\Sm /
//                          artHomeApp\CC2530DB\..\..\..\..\..\Components\mac /
//                          \low_level\srf04\ -I C:\ZigBee\SmartHomeApp\Proje /
//                          cts\zstack\Samples\SmartHomeApp\CC2530DB\..\..\.. /
//                          \..\..\Components\mac\low_level\srf04\single_chip /
//                          \ -I C:\ZigBee\SmartHomeApp\Projects\zstack\Sampl /
//                          es\SmartHomeApp\CC2530DB\..\..\..\..\..\Component /
//                          s\mt\ -I C:\ZigBee\SmartHomeApp\Projects\zstack\S /
//                          amples\SmartHomeApp\CC2530DB\..\..\..\..\..\Compo /
//                          nents\osal\include\ -I C:\ZigBee\SmartHomeApp\Pro /
//                          jects\zstack\Samples\SmartHomeApp\CC2530DB\..\..\ /
//                          ..\..\..\Components\services\saddr\ -I            /
//                          C:\ZigBee\SmartHomeApp\Projects\zstack\Samples\Sm /
//                          artHomeApp\CC2530DB\..\..\..\..\..\Components\ser /
//                          vices\sdata\ -I C:\ZigBee\SmartHomeApp\Projects\z /
//                          stack\Samples\SmartHomeApp\CC2530DB\..\..\..\..\. /
//                          .\Components\stack\af\ -I                         /
//                          C:\ZigBee\SmartHomeApp\Projects\zstack\Samples\Sm /
//                          artHomeApp\CC2530DB\..\..\..\..\..\Components\sta /
//                          ck\nwk\ -I C:\ZigBee\SmartHomeApp\Projects\zstack /
//                          \Samples\SmartHomeApp\CC2530DB\..\..\..\..\..\Com /
//                          ponents\stack\sapi\ -I C:\ZigBee\SmartHomeApp\Pro /
//                          jects\zstack\Samples\SmartHomeApp\CC2530DB\..\..\ /
//                          ..\..\..\Components\stack\sec\ -I                 /
//                          C:\ZigBee\SmartHomeApp\Projects\zstack\Samples\Sm /
//                          artHomeApp\CC2530DB\..\..\..\..\..\Components\sta /
//                          ck\sys\ -I C:\ZigBee\SmartHomeApp\Projects\zstack /
//                          \Samples\SmartHomeApp\CC2530DB\..\..\..\..\..\Com /
//                          ponents\stack\zdo\ -I C:\ZigBee\SmartHomeApp\Proj /
//                          ects\zstack\Samples\SmartHomeApp\CC2530DB\..\..\. /
//                          .\..\..\Components\zmac\ -I                       /
//                          C:\ZigBee\SmartHomeApp\Projects\zstack\Samples\Sm /
//                          artHomeApp\CC2530DB\..\..\..\..\..\Components\zma /
//                          c\f8w\ -Ohz --require_prototypes                  /
//    List file          =  C:\ZigBee\SmartHomeApp\Projects\zstack\Samples\Sm /
//                          artHomeApp\CC2530DB\CoordinatorEB\List\DoorLight. /
//                          s51                                               /
//                                                                            /
//                                                                            /
///////////////////////////////////////////////////////////////////////////////

        NAME DoorLight

        RTMODEL "__SystemLibrary", "CLib"
        RTMODEL "__calling_convention", "xdata_reentrant"
        RTMODEL "__code_model", "banked"
        RTMODEL "__core", "plain"
        RTMODEL "__data_model", "large"
        RTMODEL "__dptr_size", "16"
        RTMODEL "__extended_stack", "disabled"
        RTMODEL "__location_for_constants", "data"
        RTMODEL "__number_of_dptrs", "1"
        RTMODEL "__rt_version", "1"

        RSEG DOVERLAY:DATA:NOROOT(0)
        RSEG IOVERLAY:IDATA:NOROOT(0)
        RSEG ISTACK:IDATA:NOROOT(0)
        RSEG PSTACK:XDATA:NOROOT(0)
        RSEG XSTACK:XDATA:NOROOT(0)

        EXTERN ?BANKED_ENTER_XDATA
        EXTERN ?BANKED_LEAVE_XDATA
        EXTERN ?BDISPATCH
        EXTERN ?BRET
        EXTERN ?DEALLOC_XSTACK8
        EXTERN ?PUSH_XSTACK_I_TWO
        EXTERN ?US_SWITCH_DENSE
        EXTERN ?V0

        PUBLIC ??DoorLight_HandleKeys?relay
        FUNCTION ??DoorLight_HandleKeys?relay,0203H
        PUBLIC ??DoorLight_HandleMsg?relay
        FUNCTION ??DoorLight_HandleMsg?relay,0203H
        PUBLIC ??DoorLight_Init?relay
        FUNCTION ??DoorLight_Init?relay,0203H
        PUBLIC ??DoorLight_Update?relay
        FUNCTION ??DoorLight_Update?relay,0203H
        FUNCTION ??turnOffLight?relay,0203H
        FUNCTION ??turnOnLight?relay,0203H
        PUBLIC DoorLight_HandleKeys
        FUNCTION DoorLight_HandleKeys,021203H
        ARGFRAME XSTACK, 0, STACK
        LOCFRAME XSTACK, 12, STACK
        PUBLIC DoorLight_HandleMsg
        FUNCTION DoorLight_HandleMsg,021203H
        ARGFRAME XSTACK, 0, STACK
        LOCFRAME ISTACK, 2, STACK
        PUBLIC DoorLight_Init
        FUNCTION DoorLight_Init,021203H
        ARGFRAME XSTACK, 0, STACK
        LOCFRAME ISTACK, 2, STACK
        PUBLIC DoorLight_Update
        FUNCTION DoorLight_Update,021203H
        ARGFRAME XSTACK, 0, STACK
        LOCFRAME ISTACK, 2, STACK
        PUBWEAK _A_P1
        FUNCTION turnOffLight,0a1603H
        ARGFRAME XSTACK, 0, STACK
        LOCFRAME XSTACK, 12, STACK
        FUNCTION turnOnLight,0a1603H
        ARGFRAME XSTACK, 0, STACK
        LOCFRAME XSTACK, 12, STACK
        
        CFI Names cfiNames0
        CFI StackFrame CFA_SP SP IDATA
        CFI StackFrame CFA_PSP16 PSP16 XDATA
        CFI StackFrame CFA_XSP16 XSP16 XDATA
        CFI StaticOverlayFrame CFA_IOVERLAY IOVERLAY
        CFI StaticOverlayFrame CFA_DOVERLAY DOVERLAY
        CFI Resource `PSW.CY`:1, `B.BR0`:1, `B.BR1`:1, `B.BR2`:1, `B.BR3`:1
        CFI Resource `B.BR4`:1, `B.BR5`:1, `B.BR6`:1, `B.BR7`:1, `VB.BR8`:1
        CFI Resource `VB.BR9`:1, `VB.BR10`:1, `VB.BR11`:1, `VB.BR12`:1
        CFI Resource `VB.BR13`:1, `VB.BR14`:1, `VB.BR15`:1, VB:8, B:8, A:8
        CFI Resource PSW:8, DPL0:8, DPH0:8, R0:8, R1:8, R2:8, R3:8, R4:8, R5:8
        CFI Resource R6:8, R7:8, V0:8, V1:8, V2:8, V3:8, V4:8, V5:8, V6:8, V7:8
        CFI Resource V8:8, V9:8, V10:8, V11:8, V12:8, V13:8, V14:8, V15:8, SP:8
        CFI Resource PSPH:8, PSPL:8, PSP16:16, XSPH:8, XSPL:8, XSP16:16
        CFI VirtualResource ?RET:24
        CFI Resource ?BRET_EXT:8
        CFI VirtualResource ?RET_HIGH:8, ?RET_LOW:8
        CFI ResourceParts PSP16 PSPH, PSPL
        CFI ResourceParts XSP16 XSPH, XSPL
        CFI ResourceParts ?RET ?BRET_EXT, ?RET_HIGH, ?RET_LOW
        CFI EndNames cfiNames0
        
        CFI Common cfiCommon0 Using cfiNames0
        CFI CodeAlign 1
        CFI DataAlign -1
        CFI ReturnAddress ?RET CODE
        CFI CFA_DOVERLAY Used
        CFI CFA_IOVERLAY Used
        CFI CFA_SP SP+-3
        CFI CFA_PSP16 PSP16+0
        CFI CFA_XSP16 XSP16+0
        CFI `PSW.CY` SameValue
        CFI `B.BR0` SameValue
        CFI `B.BR1` SameValue
        CFI `B.BR2` SameValue
        CFI `B.BR3` SameValue
        CFI `B.BR4` SameValue
        CFI `B.BR5` SameValue
        CFI `B.BR6` SameValue
        CFI `B.BR7` SameValue
        CFI `VB.BR8` SameValue
        CFI `VB.BR9` SameValue
        CFI `VB.BR10` SameValue
        CFI `VB.BR11` SameValue
        CFI `VB.BR12` SameValue
        CFI `VB.BR13` SameValue
        CFI `VB.BR14` SameValue
        CFI `VB.BR15` SameValue
        CFI VB SameValue
        CFI B Undefined
        CFI A Undefined
        CFI PSW SameValue
        CFI DPL0 SameValue
        CFI DPH0 SameValue
        CFI R0 Undefined
        CFI R1 Undefined
        CFI R2 Undefined
        CFI R3 Undefined
        CFI R4 Undefined
        CFI R5 Undefined
        CFI R6 SameValue
        CFI R7 SameValue
        CFI V0 SameValue
        CFI V1 SameValue
        CFI V2 SameValue
        CFI V3 SameValue
        CFI V4 SameValue
        CFI V5 SameValue
        CFI V6 SameValue
        CFI V7 SameValue
        CFI V8 SameValue
        CFI V9 SameValue
        CFI V10 SameValue
        CFI V11 SameValue
        CFI V12 SameValue
        CFI V13 SameValue
        CFI V14 SameValue
        CFI V15 SameValue
        CFI PSPH Undefined
        CFI PSPL Undefined
        CFI XSPH Undefined
        CFI XSPL Undefined
        CFI ?RET Concat
        CFI ?BRET_EXT Frame(CFA_SP, 3)
        CFI ?RET_HIGH Frame(CFA_SP, 2)
        CFI ?RET_LOW Frame(CFA_SP, 1)
        CFI EndCommon cfiCommon0
        
printf              SYMBOL "printf"
DefaultLight_Init   SYMBOL "DefaultLight_Init"
DefaultLight_HandleMsg SYMBOL "DefaultLight_HandleMsg"
DefaultLight_Update SYMBOL "DefaultLight_Update"
??DefaultLight_HandleMsg?relay SYMBOL "?relay", DefaultLight_HandleMsg
??DefaultLight_Init?relay SYMBOL "?relay", DefaultLight_Init
??DefaultLight_Update?relay SYMBOL "?relay", DefaultLight_Update
??printf?relay      SYMBOL "?relay", printf
DoorLight_HandleKeys SYMBOL "DoorLight_HandleKeys"
??DoorLight_HandleKeys?relay SYMBOL "?relay", DoorLight_HandleKeys
DoorLight_HandleMsg SYMBOL "DoorLight_HandleMsg"
??DoorLight_HandleMsg?relay SYMBOL "?relay", DoorLight_HandleMsg
DoorLight_Init      SYMBOL "DoorLight_Init"
??DoorLight_Init?relay SYMBOL "?relay", DoorLight_Init
DoorLight_Update    SYMBOL "DoorLight_Update"
??DoorLight_Update?relay SYMBOL "?relay", DoorLight_Update

        EXTERN printf
        FUNCTION printf,0202H
        ARGFRAME ISTACK, 0, STACK
        ARGFRAME PSTACK, 0, STACK
        ARGFRAME XSTACK, 12, STACK
        ARGFRAME IOVERLAY, 0, STATIC
        ARGFRAME DOVERLAY, 0, STATIC
        EXTERN DefaultLight_Init
        FUNCTION DefaultLight_Init,0202H
        ARGFRAME ISTACK, 2, STACK
        ARGFRAME PSTACK, 0, STACK
        ARGFRAME XSTACK, 0, STACK
        ARGFRAME IOVERLAY, 0, STATIC
        ARGFRAME DOVERLAY, 0, STATIC
        EXTERN DefaultLight_HandleMsg
        FUNCTION DefaultLight_HandleMsg,0202H
        ARGFRAME ISTACK, 2, STACK
        ARGFRAME PSTACK, 0, STACK
        ARGFRAME XSTACK, 0, STACK
        ARGFRAME IOVERLAY, 0, STATIC
        ARGFRAME DOVERLAY, 0, STATIC
        EXTERN DefaultLight_Update
        FUNCTION DefaultLight_Update,0202H
        ARGFRAME ISTACK, 2, STACK
        ARGFRAME PSTACK, 0, STACK
        ARGFRAME XSTACK, 0, STACK
        ARGFRAME IOVERLAY, 0, STATIC
        ARGFRAME DOVERLAY, 0, STATIC
        EXTERN ??DefaultLight_HandleMsg?relay
        FUNCTION ??DefaultLight_HandleMsg?relay,00H
        EXTERN ??DefaultLight_Init?relay
        FUNCTION ??DefaultLight_Init?relay,00H
        EXTERN ??DefaultLight_Update?relay
        FUNCTION ??DefaultLight_Update?relay,00H
        EXTERN ??printf?relay
        FUNCTION ??printf?relay,00H

// C:\ZigBee\SmartHomeApp\Projects\zstack\Samples\SmartHomeApp\Source\DoorLight.c
//    1 #include "DoorLight.h"
//    2 #include "hal_mcu.h"

        ASEGN SFR_AN:DATA:NOROOT,090H
// union <unnamed> volatile __sfr _A_P1
_A_P1:
        DATA8
        DS 1
//    3 #include "Utils.h"
//    4 
//    5 #include "DefaultLight.h"
//    6 
//    7 #define LIGHT_TOTAL_NUM 3
//    8 #define LIGHT0_PIN P1_0
//    9 #define LIGHT1_PIN P1_1
//   10 #define LIGHT2_PIN P1_4
//   11 
//   12 #define LIHGT_ON_STATE 0
//   13 #define LIGHT_OFF_STATE 1
//   14 
//   15 

        RSEG BANKED_CODE:CODE:NOROOT(0)
//   16 static void turnOnLight(uint16 lightNum)
turnOnLight:
        CFI Block cfiBlock0 Using cfiCommon0
        CFI Function turnOnLight
        CODE
//   17 {
        FUNCALL turnOnLight, printf
        LOCFRAME ISTACK, 0, STACK
        LOCFRAME PSTACK, 0, STACK
        LOCFRAME XSTACK, 12, STACK
        LOCFRAME IOVERLAY, 0, STATIC
        LOCFRAME DOVERLAY, 0, STATIC
        ARGFRAME ISTACK, 0, STACK
        ARGFRAME PSTACK, 0, STACK
        ARGFRAME XSTACK, 12, STACK
        ARGFRAME IOVERLAY, 0, STATIC
        ARGFRAME DOVERLAY, 0, STATIC
        MOV     A,#-0xa
        LCALL   ?BANKED_ENTER_XDATA
        CFI DPH0 load(1, XDATA, add(CFA_XSP16, literal(-1)))
        CFI DPL0 load(1, XDATA, add(CFA_XSP16, literal(-2)))
        CFI ?BRET_EXT load(1, XDATA, add(CFA_XSP16, literal(-3)))
        CFI ?RET_HIGH load(1, XDATA, add(CFA_XSP16, literal(-4)))
        CFI ?RET_LOW load(1, XDATA, add(CFA_XSP16, literal(-5)))
        CFI R7 load(1, XDATA, add(CFA_XSP16, literal(-6)))
        CFI V1 load(1, XDATA, add(CFA_XSP16, literal(-7)))
        CFI V0 load(1, XDATA, add(CFA_XSP16, literal(-8)))
        CFI VB load(1, XDATA, add(CFA_XSP16, literal(-9)))
        CFI R6 load(1, XDATA, add(CFA_XSP16, literal(-10)))
        CFI CFA_SP SP+0
        CFI CFA_XSP16 add(XSP16, 10)
        ; Saved register size: 10
        ; Auto size: 0
        MOV     ?V0 + 0,R2
        MOV     ?V0 + 1,R3
//   18   printf("TurnOn light %d\n", lightNum);
        ; Setup parameters for call to function printf
        MOV     R0,#?V0 + 0
        LCALL   ?PUSH_XSTACK_I_TWO
        CFI CFA_XSP16 add(XSP16, 12)
        MOV     R2,#`?<Constant "TurnOn light %d\\n">` & 0xff
        MOV     R3,#(`?<Constant "TurnOn light %d\\n">` >> 8) & 0xff
        LCALL   ??printf?relay
        MOV     A,#0x2
        LCALL   ?DEALLOC_XSTACK8
        CFI CFA_XSP16 add(XSP16, 10)
//   19   
//   20   switch(lightNum) {
        MOV     R0,#?V0 + 0
        LCALL   ?US_SWITCH_DENSE
`?<Jumptable for turnOnLight>_0`:
        DATA
        DATA16
        DATA
        DATA16
        DW        1
        DATA
        DATA8
        DATA
        DATA8
        DB        1
        DATA
        DATA16
        DATA
        DATA16
        DW        ??turnOnLight_0
        DATA
        DATA16
        DATA
        DATA16
        DW        ??turnOnLight_1
        DATA
        DATA16
        DATA
        DATA16
        DW        ??turnOnLight_2
        CODE
//   21   case 1:
//   22     LIGHT1_PIN = LIHGT_ON_STATE;
??turnOnLight_1:
        CLR     0x90.1
//   23     break;
        SJMP    ??turnOnLight_3
//   24   case 2:
//   25     LIGHT2_PIN = LIHGT_ON_STATE;
??turnOnLight_2:
        CLR     0x90.4
//   26     break;
        SJMP    ??turnOnLight_3
//   27   default:
//   28     LIGHT0_PIN = LIHGT_ON_STATE;
??turnOnLight_0:
        CLR     0x90.0
        CFI EndBlock cfiBlock0
//   29   }
//   30   
//   31 }
??turnOnLight_3:
        REQUIRE ?Subroutine0
        REQUIRE _A_P1
        ; // Fall through to label ?Subroutine0

        RSEG BANKED_CODE:CODE:NOROOT(0)
?Subroutine0:
        CFI Block cfiBlock1 Using cfiCommon0
        CFI NoFunction
        CFI CFA_SP SP+0
        CFI CFA_XSP16 add(XSP16, 10)
        CFI VB load(1, XDATA, add(CFA_XSP16, literal(-9)))
        CFI DPL0 load(1, XDATA, add(CFA_XSP16, literal(-2)))
        CFI DPH0 load(1, XDATA, add(CFA_XSP16, literal(-1)))
        CFI R6 load(1, XDATA, add(CFA_XSP16, literal(-10)))
        CFI R7 load(1, XDATA, add(CFA_XSP16, literal(-6)))
        CFI V0 load(1, XDATA, add(CFA_XSP16, literal(-8)))
        CFI V1 load(1, XDATA, add(CFA_XSP16, literal(-7)))
        CFI ?BRET_EXT load(1, XDATA, add(CFA_XSP16, literal(-3)))
        CFI ?RET_HIGH load(1, XDATA, add(CFA_XSP16, literal(-4)))
        CFI ?RET_LOW load(1, XDATA, add(CFA_XSP16, literal(-5)))
        MOV     R7,#0x2
        LJMP    ?BANKED_LEAVE_XDATA
        CFI EndBlock cfiBlock1
//   32 

        RSEG BANKED_CODE:CODE:NOROOT(0)
//   33 static void turnOffLight(uint16 lightNum)
turnOffLight:
        CFI Block cfiBlock2 Using cfiCommon0
        CFI Function turnOffLight
        CODE
//   34 {
        FUNCALL turnOffLight, printf
        LOCFRAME ISTACK, 0, STACK
        LOCFRAME PSTACK, 0, STACK
        LOCFRAME XSTACK, 12, STACK
        LOCFRAME IOVERLAY, 0, STATIC
        LOCFRAME DOVERLAY, 0, STATIC
        ARGFRAME ISTACK, 0, STACK
        ARGFRAME PSTACK, 0, STACK
        ARGFRAME XSTACK, 12, STACK
        ARGFRAME IOVERLAY, 0, STATIC
        ARGFRAME DOVERLAY, 0, STATIC
        MOV     A,#-0xa
        LCALL   ?BANKED_ENTER_XDATA
        CFI DPH0 load(1, XDATA, add(CFA_XSP16, literal(-1)))
        CFI DPL0 load(1, XDATA, add(CFA_XSP16, literal(-2)))
        CFI ?BRET_EXT load(1, XDATA, add(CFA_XSP16, literal(-3)))
        CFI ?RET_HIGH load(1, XDATA, add(CFA_XSP16, literal(-4)))
        CFI ?RET_LOW load(1, XDATA, add(CFA_XSP16, literal(-5)))
        CFI R7 load(1, XDATA, add(CFA_XSP16, literal(-6)))
        CFI V1 load(1, XDATA, add(CFA_XSP16, literal(-7)))
        CFI V0 load(1, XDATA, add(CFA_XSP16, literal(-8)))
        CFI VB load(1, XDATA, add(CFA_XSP16, literal(-9)))
        CFI R6 load(1, XDATA, add(CFA_XSP16, literal(-10)))
        CFI CFA_SP SP+0
        CFI CFA_XSP16 add(XSP16, 10)
        ; Saved register size: 10
        ; Auto size: 0
        MOV     ?V0 + 0,R2
        MOV     ?V0 + 1,R3
//   35   printf("TurnOff light %d\n", lightNum);
        ; Setup parameters for call to function printf
        MOV     R0,#?V0 + 0
        LCALL   ?PUSH_XSTACK_I_TWO
        CFI CFA_XSP16 add(XSP16, 12)
        MOV     R2,#`?<Constant "TurnOff light %d\\n">` & 0xff
        MOV     R3,#(`?<Constant "TurnOff light %d\\n">` >> 8) & 0xff
        LCALL   ??printf?relay
        MOV     A,#0x2
        LCALL   ?DEALLOC_XSTACK8
        CFI CFA_XSP16 add(XSP16, 10)
//   36   switch(lightNum) {
        MOV     R0,#?V0 + 0
        LCALL   ?US_SWITCH_DENSE
`?<Jumptable for turnOffLight>_0`:
        DATA
        DATA16
        DATA
        DATA16
        DW        1
        DATA
        DATA8
        DATA
        DATA8
        DB        1
        DATA
        DATA16
        DATA
        DATA16
        DW        ??turnOffLight_0
        DATA
        DATA16
        DATA
        DATA16
        DW        ??turnOffLight_1
        DATA
        DATA16
        DATA
        DATA16
        DW        ??turnOffLight_2
        CODE
//   37   case 1:
//   38     LIGHT1_PIN = LIGHT_OFF_STATE;
??turnOffLight_1:
        SETB    0x90.1
//   39     break;
        SJMP    ??turnOffLight_3
//   40   case 2:
//   41     LIGHT2_PIN = LIGHT_OFF_STATE;
??turnOffLight_2:
        SETB    0x90.4
//   42     break;
        SJMP    ??turnOffLight_3
//   43   default:
//   44     LIGHT0_PIN = LIGHT_OFF_STATE;
??turnOffLight_0:
        SETB    0x90.0
//   45   }
//   46   
//   47 }
??turnOffLight_3:
        SJMP    ?Subroutine0
        CFI EndBlock cfiBlock2
        REQUIRE _A_P1
//   48 

        RSEG BANKED_CODE:CODE:NOROOT(0)
//   49 void DoorLight_Init()
DoorLight_Init:
        CFI Block cfiBlock3 Using cfiCommon0
        CFI Function DoorLight_Init
        CODE
//   50 { 
        FUNCALL DoorLight_Init, DefaultLight_Init
        LOCFRAME ISTACK, 2, STACK
        LOCFRAME PSTACK, 0, STACK
        LOCFRAME XSTACK, 0, STACK
        LOCFRAME IOVERLAY, 0, STATIC
        LOCFRAME DOVERLAY, 0, STATIC
        ARGFRAME ISTACK, 2, STACK
        ARGFRAME PSTACK, 0, STACK
        ARGFRAME XSTACK, 0, STACK
        ARGFRAME IOVERLAY, 0, STATIC
        ARGFRAME DOVERLAY, 0, STATIC
        PUSH    DPL
        CFI DPL0 Frame(CFA_SP, 4)
        CFI CFA_SP SP+-4
        PUSH    DPH
        CFI DPH0 Frame(CFA_SP, 5)
        CFI CFA_SP SP+-5
        ; Saved register size: 2
        ; Auto size: 0
//   51   DefaultLight_Init(&turnOnLight, &turnOffLight);
        ; Setup parameters for call to function DefaultLight_Init
        MOV     R4,#??turnOffLight?relay & 0xff
        MOV     R5,#(??turnOffLight?relay >> 8) & 0xff
        MOV     R2,#??turnOnLight?relay & 0xff
        MOV     R3,#(??turnOnLight?relay >> 8) & 0xff
        LCALL   ??DefaultLight_Init?relay
        CFI EndBlock cfiBlock3
//   52 }
        REQUIRE ?Subroutine1
        ; // Fall through to label ?Subroutine1

        RSEG BANKED_CODE:CODE:NOROOT(0)
?Subroutine1:
        CFI Block cfiBlock4 Using cfiCommon0
        CFI NoFunction
        CFI CFA_SP SP+-5
        CFI DPL0 Frame(CFA_SP, 4)
        CFI DPH0 Frame(CFA_SP, 5)
        POP     DPH
        CFI CFA_SP SP+-4
        CFI DPH0 SameValue
        POP     DPL
        CFI CFA_SP SP+-3
        CFI DPL0 SameValue
        LJMP    ?BRET
        CFI EndBlock cfiBlock4
//   53 

        RSEG BANKED_CODE:CODE:NOROOT(0)
//   54 void DoorLight_HandleKeys(uint8 keys)
DoorLight_HandleKeys:
        CFI Block cfiBlock5 Using cfiCommon0
        CFI Function DoorLight_HandleKeys
        CODE
//   55 {
        FUNCALL DoorLight_HandleKeys, printf
        LOCFRAME ISTACK, 0, STACK
        LOCFRAME PSTACK, 0, STACK
        LOCFRAME XSTACK, 12, STACK
        LOCFRAME IOVERLAY, 0, STATIC
        LOCFRAME DOVERLAY, 0, STATIC
        ARGFRAME ISTACK, 0, STACK
        ARGFRAME PSTACK, 0, STACK
        ARGFRAME XSTACK, 12, STACK
        ARGFRAME IOVERLAY, 0, STATIC
        ARGFRAME DOVERLAY, 0, STATIC
        MOV     A,#-0xa
        LCALL   ?BANKED_ENTER_XDATA
        CFI DPH0 load(1, XDATA, add(CFA_XSP16, literal(-1)))
        CFI DPL0 load(1, XDATA, add(CFA_XSP16, literal(-2)))
        CFI ?BRET_EXT load(1, XDATA, add(CFA_XSP16, literal(-3)))
        CFI ?RET_HIGH load(1, XDATA, add(CFA_XSP16, literal(-4)))
        CFI ?RET_LOW load(1, XDATA, add(CFA_XSP16, literal(-5)))
        CFI R7 load(1, XDATA, add(CFA_XSP16, literal(-6)))
        CFI V1 load(1, XDATA, add(CFA_XSP16, literal(-7)))
        CFI V0 load(1, XDATA, add(CFA_XSP16, literal(-8)))
        CFI VB load(1, XDATA, add(CFA_XSP16, literal(-9)))
        CFI R6 load(1, XDATA, add(CFA_XSP16, literal(-10)))
        CFI CFA_SP SP+0
        CFI CFA_XSP16 add(XSP16, 10)
        ; Saved register size: 10
        ; Auto size: 0
        MOV     A,R1
        MOV     R6,A
//   56   printf("DoorLight_HandleKeys : %X\n", keys);
        ; Setup parameters for call to function printf
        MOV     ?V0 + 0,R6
        MOV     ?V0 + 1,#0x0
        MOV     R0,#?V0 + 0
        LCALL   ?PUSH_XSTACK_I_TWO
        CFI CFA_XSP16 add(XSP16, 12)
        MOV     R2,#`?<Constant "DoorLight_HandleKeys ...">` & 0xff
        MOV     R3,#(`?<Constant "DoorLight_HandleKeys ...">` >> 8) & 0xff
        LCALL   ??printf?relay
        MOV     A,#0x2
        LCALL   ?DEALLOC_XSTACK8
        CFI CFA_XSP16 add(XSP16, 10)
//   57   
//   58 }
        SJMP    ?Subroutine0
        CFI EndBlock cfiBlock5
//   59 
//   60 

        RSEG BANKED_CODE:CODE:NOROOT(0)
//   61 void DoorLight_HandleMsg(uint8* msg)
DoorLight_HandleMsg:
        CFI Block cfiBlock6 Using cfiCommon0
        CFI Function DoorLight_HandleMsg
        CODE
//   62 {
        FUNCALL DoorLight_HandleMsg, DefaultLight_HandleMsg
        LOCFRAME ISTACK, 2, STACK
        LOCFRAME PSTACK, 0, STACK
        LOCFRAME XSTACK, 0, STACK
        LOCFRAME IOVERLAY, 0, STATIC
        LOCFRAME DOVERLAY, 0, STATIC
        ARGFRAME ISTACK, 2, STACK
        ARGFRAME PSTACK, 0, STACK
        ARGFRAME XSTACK, 0, STACK
        ARGFRAME IOVERLAY, 0, STATIC
        ARGFRAME DOVERLAY, 0, STATIC
        PUSH    DPL
        CFI DPL0 Frame(CFA_SP, 4)
        CFI CFA_SP SP+-4
        PUSH    DPH
        CFI DPH0 Frame(CFA_SP, 5)
        CFI CFA_SP SP+-5
        ; Saved register size: 2
        ; Auto size: 0
//   63   DefaultLight_HandleMsg(msg, "DoorLight");
        ; Setup parameters for call to function DefaultLight_HandleMsg
        MOV     R4,#`?<Constant "DoorLight">` & 0xff
        MOV     R5,#(`?<Constant "DoorLight">` >> 8) & 0xff
        LCALL   ??DefaultLight_HandleMsg?relay
//   64 }
        SJMP    ?Subroutine1
        CFI EndBlock cfiBlock6
//   65 
//   66 
//   67 // update every second

        RSEG BANKED_CODE:CODE:NOROOT(0)
//   68 void DoorLight_Update(void)
DoorLight_Update:
        CFI Block cfiBlock7 Using cfiCommon0
        CFI Function DoorLight_Update
        CODE
//   69 {
        FUNCALL DoorLight_Update, DefaultLight_Update
        LOCFRAME ISTACK, 2, STACK
        LOCFRAME PSTACK, 0, STACK
        LOCFRAME XSTACK, 0, STACK
        LOCFRAME IOVERLAY, 0, STATIC
        LOCFRAME DOVERLAY, 0, STATIC
        ARGFRAME ISTACK, 2, STACK
        ARGFRAME PSTACK, 0, STACK
        ARGFRAME XSTACK, 0, STACK
        ARGFRAME IOVERLAY, 0, STATIC
        ARGFRAME DOVERLAY, 0, STATIC
        PUSH    DPL
        CFI DPL0 Frame(CFA_SP, 4)
        CFI CFA_SP SP+-4
        PUSH    DPH
        CFI DPH0 Frame(CFA_SP, 5)
        CFI CFA_SP SP+-5
        ; Saved register size: 2
        ; Auto size: 0
//   70   DefaultLight_Update();
        ; Setup parameters for call to function DefaultLight_Update
        LCALL   ??DefaultLight_Update?relay
//   71 }
        SJMP    ?Subroutine1
        CFI EndBlock cfiBlock7

        RSEG BANK_RELAYS:CODE:REORDER:NOROOT(0)
??turnOnLight?relay:
        LCALL   ?BDISPATCH
        DATA
        DC24    turnOnLight

        RSEG BANK_RELAYS:CODE:REORDER:NOROOT(0)
??turnOffLight?relay:
        LCALL   ?BDISPATCH
        DATA
        DC24    turnOffLight

        RSEG BANK_RELAYS:CODE:REORDER:NOROOT(0)
??DoorLight_Init?relay:
        LCALL   ?BDISPATCH
        DATA
        DC24    DoorLight_Init

        RSEG BANK_RELAYS:CODE:REORDER:NOROOT(0)
??DoorLight_HandleKeys?relay:
        LCALL   ?BDISPATCH
        DATA
        DC24    DoorLight_HandleKeys

        RSEG BANK_RELAYS:CODE:REORDER:NOROOT(0)
??DoorLight_HandleMsg?relay:
        LCALL   ?BDISPATCH
        DATA
        DC24    DoorLight_HandleMsg

        RSEG BANK_RELAYS:CODE:REORDER:NOROOT(0)
??DoorLight_Update?relay:
        LCALL   ?BDISPATCH
        DATA
        DC24    DoorLight_Update

        RSEG XDATA_ROM_C:CONST:REORDER:NOROOT(0)
        DATA8
`?<Constant "TurnOn light %d\\n">`:
        DB "TurnOn light %d\012"

        RSEG XDATA_ROM_C:CONST:REORDER:NOROOT(0)
        DATA8
`?<Constant "TurnOff light %d\\n">`:
        DB "TurnOff light %d\012"

        RSEG XDATA_ROM_C:CONST:REORDER:NOROOT(0)
        DATA8
`?<Constant "DoorLight_HandleKeys ...">`:
        DB "DoorLight_HandleKeys : %X\012"

        RSEG XDATA_ROM_C:CONST:REORDER:NOROOT(0)
        DATA8
`?<Constant "DoorLight">`:
        DB "DoorLight"

        END
//   72 
//   73 
//   74 
//   75 
// 
// 182 bytes in segment BANKED_CODE
//  36 bytes in segment BANK_RELAYS
//   1 byte  in segment SFR_AN
//  72 bytes in segment XDATA_ROM_C
// 
// 218 bytes of CODE  memory
//  72 bytes of CONST memory
//   0 bytes of DATA  memory (+ 1 byte shared)
//
//Errors: none
//Warnings: none
