###############################################################################
#                                                                             #
# IAR C/C++ Compiler V8.10.3.10338/W32 for 8051         02/Jul/2018  19:56:39 #
# Copyright 2004-2011 IAR Systems AB.                                         #
#                                                                             #
#    Core               =  plain                                              #
#    Code model         =  banked                                             #
#    Data model         =  large                                              #
#    Calling convention =  xdata reentrant                                    #
#    Constant location  =  data_rom                                           #
#    Dptr setup         =  1,16                                               #
#    Source file        =  C:\ZigBee\SmartHomeApp\Components\hal\target\CC253 #
#                          0EB\hal_key.c                                      #
#    Command line       =  -f C:\ZigBee\SmartHomeApp\Projects\zstack\Samples\ #
#                          SmartHomeApp\CC2530DB\..\..\..\Tools\CC2530DB\f8wC #
#                          oord.cfg (-DCPU32MHZ -DROOT=__near_func            #
#                          -DMAC_CFG_APP_PENDING_QUEUE=TRUE                   #
#                          -DMAC_CFG_TX_DATA_MAX=5 -DMAC_CFG_TX_MAX=8         #
#                          -DMAC_CFG_RX_MAX=5 -DZDO_COORDINATOR -DRTR_NWK)    #
#                          -f C:\ZigBee\SmartHomeApp\Projects\zstack\Samples\ #
#                          SmartHomeApp\CC2530DB\..\..\..\Tools\CC2530DB\f8wC #
#                          onfig.cfg (-DZIGBEEPRO -DSECURE=0                  #
#                          -DZG_SECURE_DYNAMIC=0 -DREFLECTOR                  #
#                          -DDEFAULT_CHANLIST=0x00002000                      #
#                          -DZDAPP_CONFIG_PAN_ID=0xF227                       #
#                          -DNWK_START_DELAY=100 -DEXTENDED_JOINING_RANDOM_MA #
#                          SK=0x007F -DBEACON_REQUEST_DELAY=100               #
#                          -DBEACON_REQ_DELAY_MASK=0x00FF                     #
#                          -DLINK_STATUS_JITTER_MASK=0x007F                   #
#                          -DROUTE_EXPIRY_TIME=30 -DAPSC_ACK_WAIT_DURATION_PO #
#                          LLED=3000 -DNWK_INDIRECT_MSG_TIMEOUT=7             #
#                          -DMAX_RREQ_ENTRIES=8 -DAPSC_MAX_FRAME_RETRIES=3    #
#                          -DNWK_MAX_DATA_RETRIES=2                           #
#                          -DMAX_POLL_FAILURE_RETRIES=2 -DMAX_BCAST=9         #
#                          -DAPS_MAX_GROUPS=16 -DMAX_RTG_ENTRIES=40           #
#                          -DNWK_MAX_BINDING_ENTRIES=4                        #
#                          -DMAX_BINDING_CLUSTER_IDS=4 "-DDEFAULT_KEY={0x01,  #
#                          0x03, 0x05, 0x07, 0x09, 0x0B, 0x0D, 0x0F, 0x00,    #
#                          0x02, 0x04, 0x06, 0x08, 0x0A, 0x0C, 0x0D}"         #
#                          -DMAC_MAX_FRAME_SIZE=116                           #
#                          -DZDNWKMGR_MIN_TRANSMISSIONS=20 "-DCONST=const     #
#                          __code" -DGENERIC=__generic                        #
#                          -DRFD_RCVC_ALWAYS_ON=FALSE -DPOLL_RATE=1000        #
#                          -DQUEUED_POLL_RATE=100 -DRESPONSE_POLL_RATE=100)   #
#                          -DREJOIN_POLL_RATE=440 C:\ZigBee\SmartHomeApp\Comp #
#                          onents\hal\target\CC2530EB\hal_key.c -D ZTOOL_P1   #
#                          -D MT_TASK -D MT_SYS_FUNC -D MT_ZDO_FUNC -D        #
#                          xLCD_SUPPORTED=DEBUG -lC                           #
#                          C:\ZigBee\SmartHomeApp\Projects\zstack\Samples\Sma #
#                          rtHomeApp\CC2530DB\CoordinatorEB\List\ -lA         #
#                          C:\ZigBee\SmartHomeApp\Projects\zstack\Samples\Sma #
#                          rtHomeApp\CC2530DB\CoordinatorEB\List\             #
#                          --diag_suppress Pe001,Pa010 -o                     #
#                          C:\ZigBee\SmartHomeApp\Projects\zstack\Samples\Sma #
#                          rtHomeApp\CC2530DB\CoordinatorEB\Obj\ -e           #
#                          --no_code_motion --debug --core=plain --dptr=16,1  #
#                          --data_model=large --code_model=banked             #
#                          --calling_convention=xdata_reentrant               #
#                          --place_constants=data_rom --nr_virtual_regs 16    #
#                          -I C:\ZigBee\SmartHomeApp\Projects\zstack\Samples\ #
#                          SmartHomeApp\CC2530DB\ -I                          #
#                          C:\ZigBee\SmartHomeApp\Projects\zstack\Samples\Sma #
#                          rtHomeApp\CC2530DB\..\Source\ -I                   #
#                          C:\ZigBee\SmartHomeApp\Projects\zstack\Samples\Sma #
#                          rtHomeApp\CC2530DB\..\..\..\ZMain\TI2530DB\ -I     #
#                          C:\ZigBee\SmartHomeApp\Projects\zstack\Samples\Sma #
#                          rtHomeApp\CC2530DB\..\..\..\..\..\Components\hal\i #
#                          nclude\ -I C:\ZigBee\SmartHomeApp\Projects\zstack\ #
#                          Samples\SmartHomeApp\CC2530DB\..\..\..\..\..\Compo #
#                          nents\hal\target\CC2530EB\ -I                      #
#                          C:\ZigBee\SmartHomeApp\Projects\zstack\Samples\Sma #
#                          rtHomeApp\CC2530DB\..\..\..\..\..\Components\mac\i #
#                          nclude\ -I C:\ZigBee\SmartHomeApp\Projects\zstack\ #
#                          Samples\SmartHomeApp\CC2530DB\..\..\..\..\..\Compo #
#                          nents\mac\high_level\ -I                           #
#                          C:\ZigBee\SmartHomeApp\Projects\zstack\Samples\Sma #
#                          rtHomeApp\CC2530DB\..\..\..\..\..\Components\mac\l #
#                          ow_level\srf04\ -I C:\ZigBee\SmartHomeApp\Projects #
#                          \zstack\Samples\SmartHomeApp\CC2530DB\..\..\..\..\ #
#                          ..\Components\mac\low_level\srf04\single_chip\ -I  #
#                          C:\ZigBee\SmartHomeApp\Projects\zstack\Samples\Sma #
#                          rtHomeApp\CC2530DB\..\..\..\..\..\Components\mt\   #
#                          -I C:\ZigBee\SmartHomeApp\Projects\zstack\Samples\ #
#                          SmartHomeApp\CC2530DB\..\..\..\..\..\Components\os #
#                          al\include\ -I C:\ZigBee\SmartHomeApp\Projects\zst #
#                          ack\Samples\SmartHomeApp\CC2530DB\..\..\..\..\..\C #
#                          omponents\services\saddr\ -I                       #
#                          C:\ZigBee\SmartHomeApp\Projects\zstack\Samples\Sma #
#                          rtHomeApp\CC2530DB\..\..\..\..\..\Components\servi #
#                          ces\sdata\ -I C:\ZigBee\SmartHomeApp\Projects\zsta #
#                          ck\Samples\SmartHomeApp\CC2530DB\..\..\..\..\..\Co #
#                          mponents\stack\af\ -I C:\ZigBee\SmartHomeApp\Proje #
#                          cts\zstack\Samples\SmartHomeApp\CC2530DB\..\..\..\ #
#                          ..\..\Components\stack\nwk\ -I                     #
#                          C:\ZigBee\SmartHomeApp\Projects\zstack\Samples\Sma #
#                          rtHomeApp\CC2530DB\..\..\..\..\..\Components\stack #
#                          \sapi\ -I C:\ZigBee\SmartHomeApp\Projects\zstack\S #
#                          amples\SmartHomeApp\CC2530DB\..\..\..\..\..\Compon #
#                          ents\stack\sec\ -I C:\ZigBee\SmartHomeApp\Projects #
#                          \zstack\Samples\SmartHomeApp\CC2530DB\..\..\..\..\ #
#                          ..\Components\stack\sys\ -I                        #
#                          C:\ZigBee\SmartHomeApp\Projects\zstack\Samples\Sma #
#                          rtHomeApp\CC2530DB\..\..\..\..\..\Components\stack #
#                          \zdo\ -I C:\ZigBee\SmartHomeApp\Projects\zstack\Sa #
#                          mples\SmartHomeApp\CC2530DB\..\..\..\..\..\Compone #
#                          nts\zmac\ -I C:\ZigBee\SmartHomeApp\Projects\zstac #
#                          k\Samples\SmartHomeApp\CC2530DB\..\..\..\..\..\Com #
#                          ponents\zmac\f8w\ -Ohz --require_prototypes        #
#    List file          =  C:\ZigBee\SmartHomeApp\Projects\zstack\Samples\Sma #
#                          rtHomeApp\CC2530DB\CoordinatorEB\List\hal_key.lst  #
#    Object file        =  C:\ZigBee\SmartHomeApp\Projects\zstack\Samples\Sma #
#                          rtHomeApp\CC2530DB\CoordinatorEB\Obj\hal_key.r51   #
#                                                                             #
#                                                                             #
###############################################################################

C:\ZigBee\SmartHomeApp\Components\hal\target\CC2530EB\hal_key.c
      1          /**************************************************************************************************
      2            Filename:       hal_key.c
      3            Revised:        $Date: 2010-09-15 19:02:45 -0700 (Wed, 15 Sep 2010) $
      4            Revision:       $Revision: 23815 $
      5          
      6            Description:    This file contains the interface to the HAL KEY Service.
      7          
      8          
      9            Copyright 2006-2010 Texas Instruments Incorporated. All rights reserved.
     10          
     11            IMPORTANT: Your use of this Software is limited to those specific rights
     12            granted under the terms of a software license agreement between the user
     13            who downloaded the software, his/her employer (which must be your employer)
     14            and Texas Instruments Incorporated (the "License").  You may not use this
     15            Software unless you agree to abide by the terms of the License. The License
     16            limits your use, and you acknowledge, that the Software may not be modified,
     17            copied or distributed unless embedded on a Texas Instruments microcontroller
     18            or used solely and exclusively in conjunction with a Texas Instruments radio
     19            frequency transceiver, which is integrated into your product.  Other than for
     20            the foregoing purpose, you may not use, reproduce, copy, prepare derivative
     21            works of, modify, distribute, perform, display or sell this Software and/or
     22            its documentation for any purpose.
     23          
     24            YOU FURTHER ACKNOWLEDGE AND AGREE THAT THE SOFTWARE AND DOCUMENTATION ARE
     25            PROVIDED AS IS?WITHOUT WARRANTY OF ANY KIND, EITHER EXPRESS OR IMPLIED,
     26            INCLUDING WITHOUT LIMITATION, ANY WARRANTY OF MERCHANTABILITY, TITLE,
     27            NON-INFRINGEMENT AND FITNESS FOR A PARTICULAR PURPOSE. IN NO EVENT SHALL
     28            TEXAS INSTRUMENTS OR ITS LICENSORS BE LIABLE OR OBLIGATED UNDER CONTRACT,
     29            NEGLIGENCE, STRICT LIABILITY, CONTRIBUTION, BREACH OF WARRANTY, OR OTHER
     30            LEGAL EQUITABLE THEORY ANY DIRECT OR INDIRECT DAMAGES OR EXPENSES
     31            INCLUDING BUT NOT LIMITED TO ANY INCIDENTAL, SPECIAL, INDIRECT, PUNITIVE
     32            OR CONSEQUENTIAL DAMAGES, LOST PROFITS OR LOST DATA, COST OF PROCUREMENT
     33            OF SUBSTITUTE GOODS, TECHNOLOGY, SERVICES, OR ANY CLAIMS BY THIRD PARTIES
     34            (INCLUDING BUT NOT LIMITED TO ANY DEFENSE THEREOF), OR OTHER SIMILAR COSTS.
     35          
     36            Should you have any questions regarding your right to use this Software,
     37            contact Texas Instruments Incorporated at www.TI.com.
     38          **************************************************************************************************/
     39          /*********************************************************************
     40           NOTE: If polling is used, the hal_driver task schedules the KeyRead()
     41                 to occur every 100ms.  This should be long enough to naturally
     42                 debounce the keys.  The KeyRead() function remembers the key
     43                 state of the previous poll and will only return a non-zero
     44                 value if the key state changes.
     45          
     46           NOTE: If interrupts are used, the KeyRead() function is scheduled
     47                 25ms after the interrupt occurs by the ISR.  This delay is used
     48                 for key debouncing.  The ISR disables any further Key interrupt
     49                 until KeyRead() is executed.  KeyRead() will re-enable Key
     50                 interrupts after executing.  Unlike polling, when interrupts
     51                 are enabled, the previous key state is not remembered.  This
     52                 means that KeyRead() will return the current state of the keys
     53                 (not a change in state of the keys).
     54          
     55           NOTE: If interrupts are used, the KeyRead() fucntion is scheduled by
     56                 the ISR.  Therefore, the joystick movements will only be detected
     57                 during a pushbutton interrupt caused by S1 or the center joystick
     58                 pushbutton.
     59          
     60           NOTE: When a switch like S1 is pushed, the S1 signal goes from a normally
     61                 high state to a low state.  This transition is typically clean.  The
     62                 duration of the low state is around 200ms.  When the signal returns
     63                 to the high state, there is a high likelihood of signal bounce, which
     64                 causes a unwanted interrupts.  Normally, we would set the interrupt
     65                 edge to falling edge to generate an interrupt when S1 is pushed, but
     66                 because of the signal bounce, it is better to set the edge to rising
     67                 edge to generate an interrupt when S1 is released.  The debounce logic
     68                 can then filter out the signal bounce.  The result is that we typically
     69                 get only 1 interrupt per button push.  This mechanism is not totally
     70                 foolproof because occasionally, signal bound occurs during the falling
     71                 edge as well.  A similar mechanism is used to handle the joystick
     72                 pushbutton on the DB.  For the EB, we do not have independent control
     73                 of the interrupt edge for the S1 and center joystick pushbutton.  As
     74                 a result, only one or the other pushbuttons work reasonably well with
     75                 interrupts.  The default is the make the S1 switch on the EB work more
     76                 reliably.
     77          
     78          *********************************************************************/
     79          
     80          /**************************************************************************************************
     81           *                                            INCLUDES
     82           **************************************************************************************************/
     83          #include "hal_mcu.h"

   \                                 In  segment SFR_AN, at 0x80
   \   union <unnamed> volatile __sfr _A_P0
   \                     _A_P0:
   \   000000                DS 1

   \                                 In  segment SFR_AN, at 0x89
   \   unsigned char volatile __sfr P0IFG
   \                     P0IFG:
   \   000000                DS 1

   \                                 In  segment SFR_AN, at 0x8c
   \   unsigned char volatile __sfr PICTL
   \                     PICTL:
   \   000000                DS 1

   \                                 In  segment SFR_AN, at 0x8f
   \   unsigned char volatile __sfr P0INP
   \                     P0INP:
   \   000000                DS 1

   \                                 In  segment SFR_AN, at 0xa8
   \   union <unnamed> volatile __sfr _A_IEN0
   \                     _A_IEN0:
   \   000000                DS 1

   \                                 In  segment SFR_AN, at 0xab
   \   unsigned char volatile __sfr P0IEN
   \                     P0IEN:
   \   000000                DS 1

   \                                 In  segment SFR_AN, at 0xb8
   \   union <unnamed> volatile __sfr _A_IEN1
   \                     _A_IEN1:
   \   000000                DS 1

   \                                 In  segment SFR_AN, at 0xc0
   \   union <unnamed> volatile __sfr _A_IRCON
   \                     _A_IRCON:
   \   000000                DS 1

   \                                 In  segment SFR_AN, at 0xf3
   \   unsigned char volatile __sfr P0SEL
   \                     P0SEL:
   \   000000                DS 1

   \                                 In  segment SFR_AN, at 0xf7
   \   unsigned char volatile __sfr P2INP
   \                     P2INP:
   \   000000                DS 1

   \                                 In  segment SFR_AN, at 0xfd
   \   unsigned char volatile __sfr P0DIR
   \                     P0DIR:
   \   000000                DS 1
     84          #include "hal_defs.h"
     85          #include "hal_types.h"
     86          #include "hal_board.h"
     87          #include "hal_drivers.h"
     88          #include "hal_adc.h"
     89          #include "hal_key.h"
     90          #include "osal.h"
     91          
     92          #if (defined HAL_KEY) && (HAL_KEY == TRUE)
     93          
     94          /**************************************************************************************************
     95           *                                              MACROS
     96           **************************************************************************************************/
     97          
     98          /**************************************************************************************************
     99           *                                            CONSTANTS
    100           **************************************************************************************************/
    101          #define HAL_KEY_RISING_EDGE   0
    102          #define HAL_KEY_FALLING_EDGE  1
    103          
    104          #define HAL_KEY_DEBOUNCE_VALUE  25
    105          
    106          /* CPU port interrupt */
    107          #define HAL_KEY_CPU_PORT_0_IF P0IF
    108          //#define HAL_KEY_CPU_PORT_2_IF P2IF
    109          
    110          /* SW_6 is at P0.1 */
    111          #define HAL_KEY_PORT   P0
    112          
    113          #define HAL_KEY_SEL    P0SEL
    114          #define HAL_KEY_DIR    P0DIR
    115          
    116          /* edge interrupt */
    117          #define HAL_KEY_EDGEBIT  BV(0)
    118          #define HAL_KEY_EDGE     HAL_KEY_FALLING_EDGE
    119          
    120          
    121          /* SW_6 interrupts */
    122          #define HAL_KEY_IEN      IEN1  /* CPU interrupt mask register */
    123          #define HAL_KEY_IENBIT   BV(5) /* Mask bit for all of Port_0 */
    124          #define HAL_KEY_ICTL     P0IEN /* Port Interrupt Control register */
    125          //#define HAL_KEY_SW_6_ICTLBIT  BV(4) /* P0IEN - P0.1 enable/disable bit */
    126          #define HAL_KEY_PXIFG    P0IFG /* Interrupt flag at source */
    127          
    128          
    129          #define HAL_KEY_SW_4_PIN P0_4
    130          #define HAL_KEY_SW_4_BIT    BV(4)
    131          
    132          #define HAL_KEY_SW_5_PIN P0_5
    133          #define HAL_KEY_SW_5_BIT    BV(5)
    134          
    135          //#define HAL_KEY_SW_6_ICTLBIT  BV(4) /* P0IEN - P0.1 enable/disable bit */
    136          
    137          ///* Joy stick move at P2.0 */
    138          //#define HAL_KEY_JOY_MOVE_PORT   P2
    139          //#define HAL_KEY_JOY_MOVE_BIT    BV(0)
    140          //#define HAL_KEY_JOY_MOVE_SEL    P2SEL
    141          //#define HAL_KEY_JOY_MOVE_DIR    P2DIR
    142          //
    143          ///* edge interrupt */
    144          //#define HAL_KEY_JOY_MOVE_EDGEBIT  BV(3)
    145          //#define HAL_KEY_JOY_MOVE_EDGE     HAL_KEY_FALLING_EDGE
    146          //
    147          ///* Joy move interrupts */
    148          //#define HAL_KEY_JOY_MOVE_IEN      IEN2  /* CPU interrupt mask register */
    149          //#define HAL_KEY_JOY_MOVE_IENBIT   BV(1) /* Mask bit for all of Port_2 */
    150          //#define HAL_KEY_JOY_MOVE_ICTL     P2IEN /* Port Interrupt Control register */
    151          //#define HAL_KEY_JOY_MOVE_ICTLBIT  BV(0) /* P2IENL - P2.0<->P2.3 enable/disable bit */
    152          //#define HAL_KEY_JOY_MOVE_PXIFG    P2IFG /* Interrupt flag at source */
    153          //
    154          //#define HAL_KEY_JOY_CHN   HAL_ADC_CHANNEL_6
    155          
    156          
    157          /**************************************************************************************************
    158           *                                            TYPEDEFS
    159           **************************************************************************************************/
    160          
    161          
    162          /**************************************************************************************************
    163           *                                        GLOBAL VARIABLES
    164           **************************************************************************************************/

   \                                 In  segment XDATA_Z, align 1, keep-with-next
    165          static uint8 halKeySavedKeys;     /* used to store previous key state in polling mode */
   \                     halKeySavedKeys:
   \   000000                DS 1
   \   000001                REQUIRE __INIT_XDATA_Z

   \                                 In  segment XDATA_Z, align 1, keep-with-next
    166          static halKeyCBack_t pHalKeyProcessFunction;
   \                     pHalKeyProcessFunction:
   \   000000                DS 2
   \   000002                REQUIRE __INIT_XDATA_Z

   \                                 In  segment XDATA_Z, align 1, keep-with-next
    167          static uint8 HalKeyConfigured;
   \                     HalKeyConfigured:
   \   000000                DS 1
   \   000001                REQUIRE __INIT_XDATA_Z

   \                                 In  segment XDATA_Z, align 1, keep-with-next
    168          bool Hal_KeyIntEnable;            /* interrupt enable/disable flag */
   \                     Hal_KeyIntEnable:
   \   000000                DS 1
   \   000001                REQUIRE __INIT_XDATA_Z
    169          
    170          /**************************************************************************************************
    171           *                                        FUNCTIONS - Local
    172           **************************************************************************************************/
    173          void halProcessKeyInterrupt(void);
    174          //uint8 halGetJoyKeyInput(void);
    175          
    176          
    177          
    178          /**************************************************************************************************
    179           *                                        FUNCTIONS - API
    180           **************************************************************************************************/
    181          
    182          
    183          /**************************************************************************************************
    184           * @fn      HalKeyInit
    185           *
    186           * @brief   Initilize Key Service
    187           *
    188           * @param   none
    189           *
    190           * @return  None
    191           **************************************************************************************************/

   \                                 In  segment BANKED_CODE, align 1, keep-with-next
    192          void HalKeyInit( void )
   \                     HalKeyInit:
    193          {
   \   000000   C082         PUSH    DPL
   \   000002   C083         PUSH    DPH
   \   000004                ; Saved register size: 2
   \   000004                ; Auto size: 0
    194            /* Initialize previous key to 0 */
    195            halKeySavedKeys = 0;
   \   000004   90....       MOV     DPTR,#halKeySavedKeys
   \   000007   E4           CLR     A
   \   000008   12....       LCALL   ?Subroutine1 & 0xFFFF
    196            
    197          //    P0INP &= ~(HAL_KEY_SW_4_BIT|HAL_KEY_SW_5_BIT|HAL_KEY_SW_6_BIT);
    198          //    P0SEL &= ~(HAL_KEY_SW_4_BIT|HAL_KEY_SW_5_BIT|HAL_KEY_SW_6_BIT);    /* Set pin function to GPIO */
    199          //    P0DIR &= ~(HAL_KEY_SW_4_BIT|HAL_KEY_SW_5_BIT|HAL_KEY_SW_6_BIT);    /* Set pin direction to Input */
    200          //    P2INP &= ~(0x20); // 0010 0000
    201          //   
    202          //    P0INP &= ~(HAL_KEY_SW_5_BIT|HAL_KEY_SW_6_BIT);  //0x30 0011 0000
    203          //    P0SEL &= ~(HAL_KEY_SW_5_BIT|HAL_KEY_SW_6_BIT);    /* Set pin function to GPIO */
    204          //    P0DIR &= ~(HAL_KEY_SW_5_BIT|HAL_KEY_SW_6_BIT);    /* Set pin direction to Input */
    205          //    P2INP &= ~(0x20); // 0010 0000
    206          //    
    207              
    208              P0SEL &= ~(HAL_KEY_SW_4_BIT|HAL_KEY_SW_5_BIT);    /* Set pin function to GPIO */
    209              P0DIR &= ~(HAL_KEY_SW_4_BIT|HAL_KEY_SW_5_BIT);    /* Set pin direction to Input */
    210              P0INP &= ~(HAL_KEY_SW_4_BIT|HAL_KEY_SW_5_BIT);  //0x30 0011 0000
    211              P2INP &= ~(0x20); // 0010 0000
    212              
    213          //  
    214          //  HAL_KEY_SEL &= ~(HAL_KEY_SW_5_BIT);    /* Set pin function to GPIO */
    215          //  HAL_KEY_DIR &= ~(HAL_KEY_SW_5_BIT);    /* Set pin direction to Input */
    216          //  
    217          //  HAL_KEY_SEL &= ~(HAL_KEY_SW_6_BIT);    /* Set pin function to GPIO */
    218          //  HAL_KEY_DIR &= ~(HAL_KEY_SW_6_BIT);    /* Set pin direction to Input */
    219          
    220          //  HAL_KEY_JOY_MOVE_SEL &= ~(HAL_KEY_JOY_MOVE_BIT); /* Set pin function to GPIO */
    221          //  HAL_KEY_JOY_MOVE_DIR &= ~(HAL_KEY_JOY_MOVE_BIT); /* Set pin direction to Input */
    222          
    223          
    224            /* Initialize callback function */
    225            pHalKeyProcessFunction  = NULL;
   \                     ??CrossCallReturnLabel_0:
   \   00000B   90....       MOV     DPTR,#pHalKeyProcessFunction
   \   00000E   F0           MOVX    @DPTR,A
   \   00000F   A3           INC     DPTR
   \   000010   F0           MOVX    @DPTR,A
    226          
    227            /* Start with key is not configured */
    228            HalKeyConfigured = FALSE;
   \   000011   90....       MOV     DPTR,#HalKeyConfigured
   \   000014   F0           MOVX    @DPTR,A
    229          }
   \   000015   02....       LJMP    ?Subroutine0 & 0xFFFF
   \   000018                REQUIRE P0SEL
   \   000018                REQUIRE P0DIR
   \   000018                REQUIRE P0INP
   \   000018                REQUIRE P2INP

   \                                 In  segment BANKED_CODE, align 1, keep-with-next
   \                     ?Subroutine1:
   \   000000   F0           MOVX    @DPTR,A
   \   000001   53F3CF       ANL     0xf3,#0xcf
   \   000004   53FDCF       ANL     0xfd,#0xcf
   \   000007   538FCF       ANL     0x8f,#0xcf
   \   00000A   53F7DF       ANL     0xf7,#0xdf
   \   00000D   22           RET

   \                                 In  segment BANKED_CODE, align 1, keep-with-next
   \                     ?Subroutine0:
   \   000000   D083         POP     DPH
   \   000002   D082         POP     DPL
   \   000004   02....       LJMP    ?BRET
    230          
    231          
    232          /**************************************************************************************************
    233           * @fn      HalKeyConfig
    234           *
    235           * @brief   Configure the Key serivce
    236           *
    237           * @param   interruptEnable - TRUE/FALSE, enable/disable interrupt
    238           *          cback - pointer to the CallBack function
    239           *
    240           * @return  None
    241           **************************************************************************************************/

   \                                 In  segment BANKED_CODE, align 1, keep-with-next
    242          void HalKeyConfig (bool interruptEnable, halKeyCBack_t cback)
   \                     HalKeyConfig:
    243          {
   \   000000   74F7         MOV     A,#-0x9
   \   000002   12....       LCALL   ?BANKED_ENTER_XDATA
   \   000005                ; Saved register size: 9
   \   000005                ; Auto size: 0
   \   000005   E9           MOV     A,R1
    244            /* Enable/Disable Interrupt or */
    245            Hal_KeyIntEnable = interruptEnable;
   \   000006   90....       MOV     DPTR,#Hal_KeyIntEnable
   \   000009   F0           MOVX    @DPTR,A
    246          
    247            /* Register the callback fucntion */
    248            pHalKeyProcessFunction = cback;
   \   00000A   90....       MOV     DPTR,#pHalKeyProcessFunction
   \   00000D   EA           MOV     A,R2
   \   00000E   F0           MOVX    @DPTR,A
   \   00000F   A3           INC     DPTR
   \   000010   EB           MOV     A,R3
   \   000011   12....       LCALL   ?Subroutine1 & 0xFFFF
    249          
    250              P0SEL &= ~(HAL_KEY_SW_4_BIT|HAL_KEY_SW_5_BIT);    /* Set pin function to GPIO */
    251              P0DIR &= ~(HAL_KEY_SW_4_BIT|HAL_KEY_SW_5_BIT);    /* Set pin direction to Input */
    252              P0INP &= ~(HAL_KEY_SW_4_BIT|HAL_KEY_SW_5_BIT);  //0x30 0011 0000
    253              P2INP &= ~(0x20); // 0010 0000
    254              
    255            /* Determine if interrupt is enable or not */
    256            if (Hal_KeyIntEnable)
   \                     ??CrossCallReturnLabel_1:
   \   000014   90....       MOV     DPTR,#Hal_KeyIntEnable
   \   000017   E0           MOVX    A,@DPTR
   \   000018   6021         JZ      ??HalKeyConfig_0
    257            {
    258             
    259              /* Rising/Falling edge configuratinn */
    260          
    261              PICTL |= 0x01;
   \   00001A   438C01       ORL     0x8c,#0x1
    262              P0IEN |= HAL_KEY_SW_4_BIT|HAL_KEY_SW_5_BIT; // SW4, SW5
   \   00001D   43AB30       ORL     0xab,#0x30
    263              P0IE = 1;
   \   000020   D2BD         SETB    0xb8.5
    264              P0IFG = 0;
   \   000022   758900       MOV     0x89,#0x0
    265              //EA=1;
    266              
    267              
    268              
    269          //    PICTL &= ~(HAL_KEY_EDGEBIT);    /* Clear the edge bit */
    270          //    /* For falling edge, the bit must be set. */
    271          //  #if (HAL_KEY_EDGE == HAL_KEY_FALLING_EDGE)
    272          //    PICTL |= HAL_KEY_EDGEBIT;
    273          //  #endif
    274          //
    275          //
    276          //    /* Interrupt configuration:
    277          //     * - Enable interrupt generation at the port
    278          //     * - Enable CPU interrupt
    279          //     * - Clear any pending interrupt
    280          //     */
    281          //    HAL_KEY_ICTL |= (HAL_KEY_SW_4_BIT|HAL_KEY_SW_5_BIT|HAL_KEY_SW_6_BIT);
    282          ////    HAL_KEY_ICTL |= HAL_KEY_SW_5_BIT;
    283          ////    HAL_KEY_ICTL |= HAL_KEY_SW_6_BIT;
    284          //    HAL_KEY_IEN |= HAL_KEY_IENBIT;
    285          //    
    286          ////    HAL_KEY_PXIFG = ~(HAL_KEY_SW_4_BIT | HAL_KEY_SW_5_BIT | HAL_KEY_SW_6_BIT);
    287          //    HAL_KEY_PXIFG = 0;
    288          
    289          //    PICTL |= 0x1;    //下降沿触发   
    290          //    IEN1 |= 0x20;    //允许P0口中断; 
    291          //    P0IFG = 0x00;    //初始化中断标志位
    292          //    EA = 1;          
    293          //    
    294              /* Rising/Falling edge configuratinn */
    295          
    296          //    HAL_KEY_JOY_MOVE_ICTL &= ~(HAL_KEY_JOY_MOVE_EDGEBIT);    /* Clear the edge bit */
    297          //    /* For falling edge, the bit must be set. */
    298          //  #if (HAL_KEY_JOY_MOVE_EDGE == HAL_KEY_FALLING_EDGE)
    299          //    HAL_KEY_JOY_MOVE_ICTL |= HAL_KEY_JOY_MOVE_EDGEBIT;
    300          //  #endif
    301          
    302          
    303              /* Interrupt configuration:
    304               * - Enable interrupt generation at the port
    305               * - Enable CPU interrupt
    306               * - Clear any pending interrupt
    307               */
    308          //    HAL_KEY_JOY_MOVE_ICTL |= HAL_KEY_JOY_MOVE_ICTLBIT;
    309          //    HAL_KEY_JOY_MOVE_IEN |= HAL_KEY_JOY_MOVE_IENBIT;
    310          //    HAL_KEY_JOY_MOVE_PXIFG = ~(HAL_KEY_JOY_MOVE_BIT);
    311          
    312          
    313              /* Do this only after the hal_key is configured - to work with sleep stuff */
    314              if (HalKeyConfigured == TRUE)
   \   000025   90....       MOV     DPTR,#HalKeyConfigured
   \   000028   E0           MOVX    A,@DPTR
   \   000029   6401         XRL     A,#0x1
   \   00002B   701F         JNZ     ??HalKeyConfig_1
    315              {
    316                osal_stop_timerEx(Hal_TaskID, HAL_KEY_EVENT);  /* Cancel polling if active */
   \   00002D                ; Setup parameters for call to function osal_stop_timerEx
   \   00002D   7A01         MOV     R2,#0x1
   \   00002F   7B00         MOV     R3,#0x0
   \   000031   90....       MOV     DPTR,#Hal_TaskID
   \   000034   E0           MOVX    A,@DPTR
   \   000035   F9           MOV     R1,A
   \   000036   12....       LCALL   ??osal_stop_timerEx?relay
   \   000039   8011         SJMP    ??HalKeyConfig_1
    317              }
    318            }
    319            else    /* Interrupts NOT enabled */
    320            {
    321              HAL_KEY_ICTL &= ~(HAL_KEY_SW_4_BIT|HAL_KEY_SW_5_BIT); /* don't generate interrupt */
   \                     ??HalKeyConfig_0:
   \   00003B   53ABCF       ANL     0xab,#0xcf
    322              
    323          //    HAL_KEY_ICTL &= ~(HAL_KEY_SW_5_BIT); /* don't generate interrupt */
    324          //    HAL_KEY_ICTL &= ~(HAL_KEY_SW_6_BIT); /* don't generate interrupt */
    325              HAL_KEY_IEN &= ~(HAL_KEY_IENBIT);   /* Clear interrupt enable bit */
   \   00003E   C2BD         CLR     0xb8.5
    326          
    327              osal_set_event(Hal_TaskID, HAL_KEY_EVENT);
   \   000040                ; Setup parameters for call to function osal_set_event
   \   000040   7A01         MOV     R2,#0x1
   \   000042   7B00         MOV     R3,#0x0
   \   000044   90....       MOV     DPTR,#Hal_TaskID
   \   000047   E0           MOVX    A,@DPTR
   \   000048   F9           MOV     R1,A
   \   000049   12....       LCALL   ??osal_set_event?relay
    328            }
    329          
    330            /* Key now is configured */
    331            HalKeyConfigured = TRUE;
   \                     ??HalKeyConfig_1:
   \   00004C   90....       MOV     DPTR,#HalKeyConfigured
   \   00004F   7401         MOV     A,#0x1
   \   000051   F0           MOVX    @DPTR,A
    332          }
   \   000052   FF           MOV     R7,A
   \   000053   02....       LJMP    ?BANKED_LEAVE_XDATA
   \   000056                REQUIRE P0SEL
   \   000056                REQUIRE P0DIR
   \   000056                REQUIRE P0INP
   \   000056                REQUIRE P2INP
   \   000056                REQUIRE PICTL
   \   000056                REQUIRE P0IEN
   \   000056                REQUIRE _A_IEN1
   \   000056                REQUIRE P0IFG
    333          
    334          
    335          /**************************************************************************************************
    336           * @fn      HalKeyRead
    337           *
    338           * @brief   Read the current value of a key
    339           *
    340           * @param   None
    341           *
    342           * @return  keys - current keys status
    343           **************************************************************************************************/

   \                                 In  segment BANKED_CODE, align 1, keep-with-next
    344          uint8 HalKeyRead ( void )
   \                     HalKeyRead:
    345          {
   \   000000                ; Saved register size: 0
   \   000000                ; Auto size: 0
    346            uint8 keys = 0;
   \   000000   7900         MOV     R1,#0x0
    347            
    348             if (HAL_KEY_SW_4_PIN == 0)
   \   000002   A284         MOV     C,0x80.4
   \   000004   4002         JC      ??HalKeyRead_0
    349            {
    350              keys |= HAL_KEY_SW_4;
   \   000006   7908         MOV     R1,#0x8
    351            }
    352            
    353             if (HAL_KEY_SW_5_PIN == 0)
   \                     ??HalKeyRead_0:
   \   000008   A285         MOV     C,0x80.5
   \   00000A   4004         JC      ??HalKeyRead_1
    354            {
    355              keys |= HAL_KEY_SW_5;
   \   00000C   E9           MOV     A,R1
   \   00000D   D2E2         SETB    0xE0 /* A   */.2
   \   00000F   F9           MOV     R1,A
    356            }
    357          
    358          //  if ((HAL_KEY_JOY_MOVE_PORT & HAL_KEY_JOY_MOVE_BIT))  /* Key is active low */
    359          //  {
    360          //    keys |= halGetJoyKeyInput();
    361          //  }
    362          
    363            return keys;
   \                     ??HalKeyRead_1:
   \   000010   02....       LJMP    ?BRET
   \   000013                REQUIRE _A_P0
    364          }
    365          
    366          
    367          /**************************************************************************************************
    368           * @fn      HalKeyPoll
    369           *
    370           * @brief   Called by hal_driver to poll the keys
    371           *
    372           * @param   None
    373           *
    374           * @return  None
    375           **************************************************************************************************/

   \                                 In  segment BANKED_CODE, align 1, keep-with-next
    376          void HalKeyPoll (void)
   \                     HalKeyPoll:
    377          {
   \   000000   C082         PUSH    DPL
   \   000002   C083         PUSH    DPH
   \   000004                ; Saved register size: 2
   \   000004                ; Auto size: 0
    378            uint8 keys = 0;
   \   000004   7900         MOV     R1,#0x0
    379          
    380          //  if ((HAL_KEY_JOY_MOVE_PORT & HAL_KEY_JOY_MOVE_BIT))  /* Key is active HIGH */
    381          //  {
    382          //    keys = halGetJoyKeyInput();
    383          //  }
    384          
    385            /* If interrupts are not enabled, previous key status and current key status
    386             * are compared to find out if a key has changed status.
    387             */
    388            
    389            if (HAL_KEY_SW_4_PIN == 0)
   \   000006   A284         MOV     C,0x80.4
   \   000008   4002         JC      ??HalKeyPoll_0
    390            {
    391              keys |= HAL_KEY_SW_4;
   \   00000A   7908         MOV     R1,#0x8
    392            }
    393            
    394            if (HAL_KEY_SW_5_PIN == 0)
   \                     ??HalKeyPoll_0:
   \   00000C   A285         MOV     C,0x80.5
   \   00000E   4004         JC      ??HalKeyPoll_1
    395            {
    396              keys |= HAL_KEY_SW_5;
   \   000010   E9           MOV     A,R1
   \   000011   D2E2         SETB    0xE0 /* A   */.2
   \   000013   F9           MOV     R1,A
    397            }
    398          
    399            
    400            if (!Hal_KeyIntEnable)
   \                     ??HalKeyPoll_1:
   \   000014   90....       MOV     DPTR,#Hal_KeyIntEnable
   \   000017   E0           MOVX    A,@DPTR
   \   000018   7009         JNZ     ??HalKeyPoll_2
    401            {
    402              if (keys == halKeySavedKeys)
   \   00001A   90....       MOV     DPTR,#halKeySavedKeys
   \   00001D   E0           MOVX    A,@DPTR
   \   00001E   69           XRL     A,R1
   \   00001F   6021         JZ      ??HalKeyPoll_3
    403              {
    404                /* Exit - since no keys have changed */
    405                return;
    406              }
    407              /* Store the current keys for comparation next time */
    408              halKeySavedKeys = keys;
   \   000021   E9           MOV     A,R1
   \   000022   F0           MOVX    @DPTR,A
    409            }
    410            else
    411            {
    412              /* Key interrupt handled here */
    413            }
    414          
    415          
    416            /* Invoke Callback if new keys were depressed */
    417            if (keys && (pHalKeyProcessFunction))
   \                     ??HalKeyPoll_2:
   \   000023   E9           MOV     A,R1
   \   000024   601C         JZ      ??HalKeyPoll_3
   \   000026   90....       MOV     DPTR,#pHalKeyProcessFunction
   \   000029   E0           MOVX    A,@DPTR
   \   00002A   FA           MOV     R2,A
   \   00002B   A3           INC     DPTR
   \   00002C   E0           MOVX    A,@DPTR
   \   00002D   FB           MOV     R3,A
   \   00002E   EA           MOV     A,R2
   \   00002F   4B           ORL     A,R3
   \   000030   6010         JZ      ??HalKeyPoll_3
    418            {
    419              (pHalKeyProcessFunction) (keys, HAL_KEY_STATE_NORMAL);
   \   000032                ; Setup parameters for indirect call
   \   000032   7A00         MOV     R2,#0x0
   \   000034   90....       MOV     DPTR,#pHalKeyProcessFunction
   \   000037   E0           MOVX    A,@DPTR
   \   000038   F8           MOV     R0,A
   \   000039   A3           INC     DPTR
   \   00003A   E0           MOVX    A,@DPTR
   \   00003B   F583         MOV     DPH,A
   \   00003D   8882         MOV     DPL,R0
   \   00003F   12....       LCALL   ?CALL_IND
    420            }
   \                     ??HalKeyPoll_3:
   \   000042   80..         SJMP    ?Subroutine0
   \   000044                REQUIRE _A_P0
    421          }
    422          
    423          /**************************************************************************************************
    424           * @fn      halGetJoyKeyInput
    425           *
    426           * @brief   Map the ADC value to its corresponding key.
    427           *
    428           * @param   None
    429           *
    430           * @return  keys - current joy key status
    431           **************************************************************************************************/
    432          //uint8 halGetJoyKeyInput(void)
    433          //{
    434          //  /* The joystick control is encoded as an analog voltage.
    435          //   * Read the JOY_LEVEL analog value and map it to joy movement.
    436          //   */
    437          //  uint8 adc;
    438          //  uint8 ksave0 = 0;
    439          //  uint8 ksave1;
    440          //
    441          //  /* Keep on reading the ADC until two consecutive key decisions are the same. */
    442          //  do
    443          //  {
    444          //    ksave1 = ksave0;    /* save previouse key reading */
    445          //
    446          //    adc = HalAdcRead (HAL_KEY_JOY_CHN, HAL_ADC_RESOLUTION_8);
    447          //
    448          //    if ((adc >= 2) && (adc <= 38))
    449          //    {
    450          //       ksave0 |= HAL_KEY_UP;
    451          //    }
    452          //    else if ((adc >= 74) && (adc <= 88))
    453          //    {
    454          //      ksave0 |= HAL_KEY_RIGHT;
    455          //    }
    456          //    else if ((adc >= 60) && (adc <= 73))
    457          //    {
    458          //      ksave0 |= HAL_KEY_LEFT;
    459          //    }
    460          //    else if ((adc >= 39) && (adc <= 59))
    461          //    {
    462          //      ksave0 |= HAL_KEY_DOWN;
    463          //    }
    464          //    else if ((adc >= 89) && (adc <= 100))
    465          //    {
    466          //      ksave0 |= HAL_KEY_CENTER;
    467          //    }
    468          //  } while (ksave0 != ksave1);
    469          //
    470          //  return ksave0;
    471          //}
    472          //
    473          //
    474          
    475          
    476          
    477          /**************************************************************************************************
    478           * @fn      halProcessKeyInterrupt
    479           *
    480           * @brief   Checks to see if it's a valid key interrupt, saves interrupt driven key states for
    481           *          processing by HalKeyRead(), and debounces keys by scheduling HalKeyRead() 25ms later.
    482           *
    483           * @param
    484           *
    485           * @return
    486           **************************************************************************************************/

   \                                 In  segment BANKED_CODE, align 1, keep-with-next
    487          void halProcessKeyInterrupt (void)
   \                     halProcessKeyInterrupt:
    488          {
   \   000000   C082         PUSH    DPL
   \   000002   C083         PUSH    DPH
   \   000004                ; Saved register size: 2
   \   000004                ; Auto size: 0
    489            bool valid=FALSE;
   \   000004   7800         MOV     R0,#0x0
    490          
    491            if (HAL_KEY_PXIFG & HAL_KEY_SW_4_BIT)  /* Interrupt Flag has been set */
   \   000006   E589         MOV     A,0x89
   \   000008   A2E4         MOV     C,0xE0 /* A   */.4
   \   00000A   5004         JNC     ??halProcessKeyInterrupt_0
    492            {
    493              HAL_KEY_PXIFG &= ~(HAL_KEY_SW_4_BIT); /* Clear Interrupt Flag */
   \   00000C   5389EF       ANL     0x89,#0xef
    494              valid = TRUE;
   \   00000F   08           INC     R0
    495            }
    496            
    497            if (HAL_KEY_PXIFG & HAL_KEY_SW_5_BIT)  /* Interrupt Flag has been set */
   \                     ??halProcessKeyInterrupt_0:
   \   000010   E589         MOV     A,0x89
   \   000012   A2E5         MOV     C,0xE0 /* A   */.5
   \   000014   5005         JNC     ??halProcessKeyInterrupt_1
    498            {
    499              HAL_KEY_PXIFG &= ~(HAL_KEY_SW_5_BIT); /* Clear Interrupt Flag */
   \   000016   5389DF       ANL     0x89,#0xdf
    500              valid = TRUE;
   \   000019   8005         SJMP    ??halProcessKeyInterrupt_2
    501            }
    502          //  if (HAL_KEY_JOY_MOVE_PXIFG & HAL_KEY_JOY_MOVE_BIT)  /* Interrupt Flag has been set */
    503          //  {
    504          //    HAL_KEY_JOY_MOVE_PXIFG = ~(HAL_KEY_JOY_MOVE_BIT); /* Clear Interrupt Flag */
    505          //    valid = TRUE;
    506          //  }
    507          
    508            if (valid)
   \                     ??halProcessKeyInterrupt_1:
   \   00001B   E8           MOV     A,R0
   \   00001C   A2E0         MOV     C,0xE0 /* A   */.0
   \   00001E   5010         JNC     ??halProcessKeyInterrupt_3
    509            {
    510              osal_start_timerEx (Hal_TaskID, HAL_KEY_EVENT, HAL_KEY_DEBOUNCE_VALUE);
   \                     ??halProcessKeyInterrupt_2:
   \   000020                ; Setup parameters for call to function osal_start_timerEx
   \   000020   7C19         MOV     R4,#0x19
   \   000022   7D00         MOV     R5,#0x0
   \   000024   7A01         MOV     R2,#0x1
   \   000026   7B00         MOV     R3,#0x0
   \   000028   90....       MOV     DPTR,#Hal_TaskID
   \   00002B   E0           MOVX    A,@DPTR
   \   00002C   F9           MOV     R1,A
   \   00002D   12....       LCALL   ??osal_start_timerEx?relay
    511            }
    512          }
   \                     ??halProcessKeyInterrupt_3:
   \   000030                REQUIRE ?Subroutine0
   \   000030                REQUIRE P0IFG
   \   000030                ; // Fall through to label ?Subroutine0
    513          
    514          /**************************************************************************************************
    515           * @fn      HalKeyEnterSleep
    516           *
    517           * @brief  - Get called to enter sleep mode
    518           *
    519           * @param
    520           *
    521           * @return
    522           **************************************************************************************************/

   \                                 In  segment BANKED_CODE, align 1, keep-with-next
    523          void HalKeyEnterSleep ( void )
   \                     HalKeyEnterSleep:
    524          {
   \   000000                ; Saved register size: 0
   \   000000                ; Auto size: 0
    525          }
   \   000000   02....       LJMP    ?BRET
    526          
    527          /**************************************************************************************************
    528           * @fn      HalKeyExitSleep
    529           *
    530           * @brief   - Get called when sleep is over
    531           *
    532           * @param
    533           *
    534           * @return  - return saved keys
    535           **************************************************************************************************/

   \                                 In  segment BANKED_CODE, align 1, keep-with-next
    536          uint8 HalKeyExitSleep ( void )
   \                     HalKeyExitSleep:
    537          {
   \   000000   C082         PUSH    DPL
   \   000002   C083         PUSH    DPH
   \   000004                ; Saved register size: 2
   \   000004                ; Auto size: 0
    538            /* Wake up and read keys */
    539            return ( HalKeyRead () );
   \   000004                ; Setup parameters for call to function HalKeyRead
   \   000004   12....       LCALL   ??HalKeyRead?relay
   \   000007   80..         SJMP    ?Subroutine0
    540          }
    541          
    542          /***************************************************************************************************
    543           *                                    INTERRUPT SERVICE ROUTINE
    544           ***************************************************************************************************/
    545          
    546          /**************************************************************************************************
    547           * @fn      halKeyPort0Isr
    548           *
    549           * @brief   Port0 ISR
    550           *
    551           * @param
    552           *
    553           * @return
    554           **************************************************************************************************/

   \                                 In  segment NEAR_CODE, align 1, keep-with-next
    555          HAL_ISR_FUNCTION( halKeyPort0Isr, P0INT_VECTOR )
   \                     halKeyPort0Isr:
    556          {
   \   000000   C0E0         PUSH    A
   \   000002   74F2         MOV     A,#-0xe
   \   000004   12....       LCALL   ?INTERRUPT_ENTER_XSP
   \   000007                ; Saved register size: 14
   \   000007                ; Auto size: 0
    557            HAL_ENTER_ISR();
   \   000007   A2AF         MOV     C,0xa8.7
   \   000009   E4           CLR     A
   \   00000A   33           RLC     A
   \   00000B   FE           MOV     R6,A
   \   00000C   D2AF         SETB    0xa8.7
    558          
    559            if (HAL_KEY_PXIFG & HAL_KEY_SW_4_BIT)
   \   00000E   E589         MOV     A,0x89
   \   000010   A2E4         MOV     C,0xE0 /* A   */.4
   \   000012   5003         JNC     ??halKeyPort0Isr_0
    560            {
    561              halProcessKeyInterrupt();
   \   000014                ; Setup parameters for call to function halProcessKeyInterrupt
   \   000014   12....       LCALL   ??halProcessKeyInterrupt?relay
    562            }
    563          
    564            if (HAL_KEY_PXIFG & HAL_KEY_SW_5_BIT)
   \                     ??halKeyPort0Isr_0:
   \   000017   E589         MOV     A,0x89
   \   000019   A2E5         MOV     C,0xE0 /* A   */.5
   \   00001B   5003         JNC     ??halKeyPort0Isr_1
    565            {
    566              halProcessKeyInterrupt();
   \   00001D                ; Setup parameters for call to function halProcessKeyInterrupt
   \   00001D   12....       LCALL   ??halProcessKeyInterrupt?relay
    567            }
    568          
    569            /*
    570              Clear the CPU interrupt flag for Port_0
    571              PxIFG has to be cleared before PxIF
    572            */
    573            
    574            HAL_KEY_PXIFG = 0;
   \                     ??halKeyPort0Isr_1:
   \   000020   758900       MOV     0x89,#0x0
    575            HAL_KEY_CPU_PORT_0_IF = 0;
   \   000023   C2C5         CLR     0xc0.5
    576            
    577            CLEAR_SLEEP_MODE();
    578            HAL_EXIT_ISR();
   \   000025   EE           MOV     A,R6
   \   000026   A2E0         MOV     C,0xE0 /* A   */.0
   \   000028   92AF         MOV     0xa8.7,C
    579          }
   \   00002A   7F01         MOV     R7,#0x1
   \   00002C   02....       LJMP    ?INTERRUPT_LEAVE_XSP
   \   00002F                REQUIRE _A_IEN0
   \   00002F                REQUIRE P0IFG
   \   00002F                REQUIRE _A_IRCON

   \                                 In  segment INTVEC, offset 0x6b, root
   \                     `??halKeyPort0Isr??INTVEC 107`:
   \   00006B   02....       LJMP       (halKeyPort0Isr)

   \                                 In  segment BANK_RELAYS, align 1
   \                     ??HalKeyInit?relay:
   \   000000   12....       LCALL   ?BDISPATCH
   \   000003   ......       DC24    HalKeyInit

   \                                 In  segment BANK_RELAYS, align 1
   \                     ??HalKeyConfig?relay:
   \   000000   12....       LCALL   ?BDISPATCH
   \   000003   ......       DC24    HalKeyConfig

   \                                 In  segment BANK_RELAYS, align 1
   \                     ??HalKeyRead?relay:
   \   000000   12....       LCALL   ?BDISPATCH
   \   000003   ......       DC24    HalKeyRead

   \                                 In  segment BANK_RELAYS, align 1
   \                     ??HalKeyPoll?relay:
   \   000000   12....       LCALL   ?BDISPATCH
   \   000003   ......       DC24    HalKeyPoll

   \                                 In  segment BANK_RELAYS, align 1
   \                     ??halProcessKeyInterrupt?relay:
   \   000000   12....       LCALL   ?BDISPATCH
   \   000003   ......       DC24    halProcessKeyInterrupt

   \                                 In  segment BANK_RELAYS, align 1
   \                     ??HalKeyEnterSleep?relay:
   \   000000   12....       LCALL   ?BDISPATCH
   \   000003   ......       DC24    HalKeyEnterSleep

   \                                 In  segment BANK_RELAYS, align 1
   \                     ??HalKeyExitSleep?relay:
   \   000000   12....       LCALL   ?BDISPATCH
   \   000003   ......       DC24    HalKeyExitSleep
    580          
    581          
    582          /**************************************************************************************************
    583           * @fn      halKeyPort2Isr
    584           *
    585           * @brief   Port2 ISR
    586           *
    587           * @param
    588           *
    589           * @return
    590           **************************************************************************************************/
    591          //HAL_ISR_FUNCTION( halKeyPort2Isr, P2INT_VECTOR )
    592          //{
    593          //  HAL_ENTER_ISR();
    594          //  
    595          //  if (HAL_KEY_JOY_MOVE_PXIFG & HAL_KEY_JOY_MOVE_BIT)
    596          //  {
    597          //    halProcessKeyInterrupt();
    598          //  }
    599          //
    600          //  /*
    601          //    Clear the CPU interrupt flag for Port_2
    602          //    PxIFG has to be cleared before PxIF
    603          //    Notes: P2_1 and P2_2 are debug lines.
    604          //  */
    605          //  HAL_KEY_JOY_MOVE_PXIFG = 0;
    606          //  HAL_KEY_CPU_PORT_2_IF = 0;
    607          //
    608          //  CLEAR_SLEEP_MODE();
    609          //  HAL_EXIT_ISR();
    610          //}
    611          
    612          #else
    613          
    614          
    615          void HalKeyInit(void){}
    616          void HalKeyConfig(bool interruptEnable, halKeyCBack_t cback){}
    617          uint8 HalKeyRead(void){ return 0;}
    618          void HalKeyPoll(void){}
    619          
    620          #endif /* HAL_KEY */
    621          
    622          
    623          
    624          
    625          
    626          /**************************************************************************************************
    627          **************************************************************************************************/
    628          
    629          
    630          

   Maximum stack usage in bytes:

     Function                    ISTACK PSTACK XSTACK
     --------                    ------ ------ ------
     HalKeyConfig                    0      0      9
       -> osal_stop_timerEx          0      0     18
       -> osal_set_event             0      0     18
     HalKeyEnterSleep                0      0      0
     HalKeyExitSleep                 2      0      0
       -> HalKeyRead                 4      0      0
     HalKeyInit                      2      0      0
     HalKeyPoll                      2      0      0
     HalKeyRead                      0      0      0
     halKeyPort0Isr                  0      0     14
       -> halProcessKeyInterrupt     0      0     28
       -> halProcessKeyInterrupt     0      0     28
     halProcessKeyInterrupt          2      0     14
       -> osal_start_timerEx         4      0      0


   Segment part sizes:

     Function/Label                 Bytes
     --------------                 -----
     _A_P0                             1
     P0IFG                             1
     PICTL                             1
     P0INP                             1
     _A_IEN0                           1
     P0IEN                             1
     _A_IEN1                           1
     _A_IRCON                          1
     P0SEL                             1
     P2INP                             1
     P0DIR                             1
     halKeySavedKeys                   1
     pHalKeyProcessFunction            2
     HalKeyConfigured                  1
     Hal_KeyIntEnable                  1
     HalKeyInit                       24
     ?Subroutine1                     14
     ?Subroutine0                      7
     HalKeyConfig                     86
     HalKeyRead                       19
     HalKeyPoll                       68
     halProcessKeyInterrupt           48
     HalKeyEnterSleep                  3
     HalKeyExitSleep                   9
     halKeyPort0Isr                   47
     ??halKeyPort0Isr??INTVEC 107      3
     ??HalKeyInit?relay                6
     ??HalKeyConfig?relay              6
     ??HalKeyRead?relay                6
     ??HalKeyPoll?relay                6
     ??halProcessKeyInterrupt?relay    6
     ??HalKeyEnterSleep?relay          6
     ??HalKeyExitSleep?relay           6

 
 278 bytes in segment BANKED_CODE
  42 bytes in segment BANK_RELAYS
   3 bytes in segment INTVEC
  47 bytes in segment NEAR_CODE
  11 bytes in segment SFR_AN
   5 bytes in segment XDATA_Z
 
 367 bytes of CODE  memory (+  3 bytes shared)
   0 bytes of DATA  memory (+ 11 bytes shared)
   5 bytes of XDATA memory

Errors: none
Warnings: none
