///////////////////////////////////////////////////////////////////////////////
//                                                                            /
// IAR C/C++ Compiler V8.10.3.10338/W32 for 8051        02/Jul/2018  19:56:39 /
// Copyright 2004-2011 IAR Systems AB.                                        /
//                                                                            /
//    Core               =  plain                                             /
//    Code model         =  banked                                            /
//    Data model         =  large                                             /
//    Calling convention =  xdata reentrant                                   /
//    Constant location  =  data_rom                                          /
//    Dptr setup         =  1,16                                              /
//    Source file        =  C:\ZigBee\SmartHomeApp\Components\hal\target\CC25 /
//                          30EB\hal_key.c                                    /
//    Command line       =  -f C:\ZigBee\SmartHomeApp\Projects\zstack\Samples /
//                          \SmartHomeApp\CC2530DB\..\..\..\Tools\CC2530DB\f8 /
//                          wCoord.cfg (-DCPU32MHZ -DROOT=__near_func         /
//                          -DMAC_CFG_APP_PENDING_QUEUE=TRUE                  /
//                          -DMAC_CFG_TX_DATA_MAX=5 -DMAC_CFG_TX_MAX=8        /
//                          -DMAC_CFG_RX_MAX=5 -DZDO_COORDINATOR -DRTR_NWK)   /
//                          -f C:\ZigBee\SmartHomeApp\Projects\zstack\Samples /
//                          \SmartHomeApp\CC2530DB\..\..\..\Tools\CC2530DB\f8 /
//                          wConfig.cfg (-DZIGBEEPRO -DSECURE=0               /
//                          -DZG_SECURE_DYNAMIC=0 -DREFLECTOR                 /
//                          -DDEFAULT_CHANLIST=0x00002000                     /
//                          -DZDAPP_CONFIG_PAN_ID=0xF227                      /
//                          -DNWK_START_DELAY=100 -DEXTENDED_JOINING_RANDOM_M /
//                          ASK=0x007F -DBEACON_REQUEST_DELAY=100             /
//                          -DBEACON_REQ_DELAY_MASK=0x00FF                    /
//                          -DLINK_STATUS_JITTER_MASK=0x007F                  /
//                          -DROUTE_EXPIRY_TIME=30 -DAPSC_ACK_WAIT_DURATION_P /
//                          OLLED=3000 -DNWK_INDIRECT_MSG_TIMEOUT=7           /
//                          -DMAX_RREQ_ENTRIES=8 -DAPSC_MAX_FRAME_RETRIES=3   /
//                          -DNWK_MAX_DATA_RETRIES=2                          /
//                          -DMAX_POLL_FAILURE_RETRIES=2 -DMAX_BCAST=9        /
//                          -DAPS_MAX_GROUPS=16 -DMAX_RTG_ENTRIES=40          /
//                          -DNWK_MAX_BINDING_ENTRIES=4                       /
//                          -DMAX_BINDING_CLUSTER_IDS=4                       /
//                          "-DDEFAULT_KEY={0x01, 0x03, 0x05, 0x07, 0x09,     /
//                          0x0B, 0x0D, 0x0F, 0x00, 0x02, 0x04, 0x06, 0x08,   /
//                          0x0A, 0x0C, 0x0D}" -DMAC_MAX_FRAME_SIZE=116       /
//                          -DZDNWKMGR_MIN_TRANSMISSIONS=20 "-DCONST=const    /
//                          __code" -DGENERIC=__generic                       /
//                          -DRFD_RCVC_ALWAYS_ON=FALSE -DPOLL_RATE=1000       /
//                          -DQUEUED_POLL_RATE=100 -DRESPONSE_POLL_RATE=100)  /
//                          -DREJOIN_POLL_RATE=440 C:\ZigBee\SmartHomeApp\Com /
//                          ponents\hal\target\CC2530EB\hal_key.c -D          /
//                          ZTOOL_P1 -D MT_TASK -D MT_SYS_FUNC -D             /
//                          MT_ZDO_FUNC -D xLCD_SUPPORTED=DEBUG -lC           /
//                          C:\ZigBee\SmartHomeApp\Projects\zstack\Samples\Sm /
//                          artHomeApp\CC2530DB\CoordinatorEB\List\ -lA       /
//                          C:\ZigBee\SmartHomeApp\Projects\zstack\Samples\Sm /
//                          artHomeApp\CC2530DB\CoordinatorEB\List\           /
//                          --diag_suppress Pe001,Pa010 -o                    /
//                          C:\ZigBee\SmartHomeApp\Projects\zstack\Samples\Sm /
//                          artHomeApp\CC2530DB\CoordinatorEB\Obj\ -e         /
//                          --no_code_motion --debug --core=plain             /
//                          --dptr=16,1 --data_model=large                    /
//                          --code_model=banked --calling_convention=xdata_re /
//                          entrant --place_constants=data_rom                /
//                          --nr_virtual_regs 16 -I                           /
//                          C:\ZigBee\SmartHomeApp\Projects\zstack\Samples\Sm /
//                          artHomeApp\CC2530DB\ -I                           /
//                          C:\ZigBee\SmartHomeApp\Projects\zstack\Samples\Sm /
//                          artHomeApp\CC2530DB\..\Source\ -I                 /
//                          C:\ZigBee\SmartHomeApp\Projects\zstack\Samples\Sm /
//                          artHomeApp\CC2530DB\..\..\..\ZMain\TI2530DB\ -I   /
//                          C:\ZigBee\SmartHomeApp\Projects\zstack\Samples\Sm /
//                          artHomeApp\CC2530DB\..\..\..\..\..\Components\hal /
//                          \include\ -I C:\ZigBee\SmartHomeApp\Projects\zsta /
//                          ck\Samples\SmartHomeApp\CC2530DB\..\..\..\..\..\C /
//                          omponents\hal\target\CC2530EB\ -I                 /
//                          C:\ZigBee\SmartHomeApp\Projects\zstack\Samples\Sm /
//                          artHomeApp\CC2530DB\..\..\..\..\..\Components\mac /
//                          \include\ -I C:\ZigBee\SmartHomeApp\Projects\zsta /
//                          ck\Samples\SmartHomeApp\CC2530DB\..\..\..\..\..\C /
//                          omponents\mac\high_level\ -I                      /
//                          C:\ZigBee\SmartHomeApp\Projects\zstack\Samples\Sm /
//                          artHomeApp\CC2530DB\..\..\..\..\..\Components\mac /
//                          \low_level\srf04\ -I C:\ZigBee\SmartHomeApp\Proje /
//                          cts\zstack\Samples\SmartHomeApp\CC2530DB\..\..\.. /
//                          \..\..\Components\mac\low_level\srf04\single_chip /
//                          \ -I C:\ZigBee\SmartHomeApp\Projects\zstack\Sampl /
//                          es\SmartHomeApp\CC2530DB\..\..\..\..\..\Component /
//                          s\mt\ -I C:\ZigBee\SmartHomeApp\Projects\zstack\S /
//                          amples\SmartHomeApp\CC2530DB\..\..\..\..\..\Compo /
//                          nents\osal\include\ -I C:\ZigBee\SmartHomeApp\Pro /
//                          jects\zstack\Samples\SmartHomeApp\CC2530DB\..\..\ /
//                          ..\..\..\Components\services\saddr\ -I            /
//                          C:\ZigBee\SmartHomeApp\Projects\zstack\Samples\Sm /
//                          artHomeApp\CC2530DB\..\..\..\..\..\Components\ser /
//                          vices\sdata\ -I C:\ZigBee\SmartHomeApp\Projects\z /
//                          stack\Samples\SmartHomeApp\CC2530DB\..\..\..\..\. /
//                          .\Components\stack\af\ -I                         /
//                          C:\ZigBee\SmartHomeApp\Projects\zstack\Samples\Sm /
//                          artHomeApp\CC2530DB\..\..\..\..\..\Components\sta /
//                          ck\nwk\ -I C:\ZigBee\SmartHomeApp\Projects\zstack /
//                          \Samples\SmartHomeApp\CC2530DB\..\..\..\..\..\Com /
//                          ponents\stack\sapi\ -I C:\ZigBee\SmartHomeApp\Pro /
//                          jects\zstack\Samples\SmartHomeApp\CC2530DB\..\..\ /
//                          ..\..\..\Components\stack\sec\ -I                 /
//                          C:\ZigBee\SmartHomeApp\Projects\zstack\Samples\Sm /
//                          artHomeApp\CC2530DB\..\..\..\..\..\Components\sta /
//                          ck\sys\ -I C:\ZigBee\SmartHomeApp\Projects\zstack /
//                          \Samples\SmartHomeApp\CC2530DB\..\..\..\..\..\Com /
//                          ponents\stack\zdo\ -I C:\ZigBee\SmartHomeApp\Proj /
//                          ects\zstack\Samples\SmartHomeApp\CC2530DB\..\..\. /
//                          .\..\..\Components\zmac\ -I                       /
//                          C:\ZigBee\SmartHomeApp\Projects\zstack\Samples\Sm /
//                          artHomeApp\CC2530DB\..\..\..\..\..\Components\zma /
//                          c\f8w\ -Ohz --require_prototypes                  /
//    List file          =  C:\ZigBee\SmartHomeApp\Projects\zstack\Samples\Sm /
//                          artHomeApp\CC2530DB\CoordinatorEB\List\hal_key.s5 /
//                          1                                                 /
//                                                                            /
//                                                                            /
///////////////////////////////////////////////////////////////////////////////

        NAME hal_key

        RTMODEL "__SystemLibrary", "CLib"
        RTMODEL "__calling_convention", "xdata_reentrant"
        RTMODEL "__code_model", "banked"
        RTMODEL "__core", "plain"
        RTMODEL "__data_model", "large"
        RTMODEL "__dptr_size", "16"
        RTMODEL "__extended_stack", "disabled"
        RTMODEL "__location_for_constants", "data"
        RTMODEL "__number_of_dptrs", "1"
        RTMODEL "__rt_version", "1"

        RSEG DOVERLAY:DATA:NOROOT(0)
        RSEG IOVERLAY:IDATA:NOROOT(0)
        RSEG ISTACK:IDATA:NOROOT(0)
        RSEG PSTACK:XDATA:NOROOT(0)
        RSEG XSTACK:XDATA:NOROOT(0)

        EXTERN ?BANKED_ENTER_XDATA
        EXTERN ?BANKED_LEAVE_XDATA
        EXTERN ?BDISPATCH
        EXTERN ?BRET
        EXTERN ?CALL_IND
        EXTERN ?INTERRUPT_ENTER_XSP
        EXTERN ?INTERRUPT_LEAVE_XSP
        EXTERN __INIT_XDATA_Z

        PUBLIC ??HalKeyConfig?relay
        FUNCTION ??HalKeyConfig?relay,0203H
        PUBLIC ??HalKeyEnterSleep?relay
        FUNCTION ??HalKeyEnterSleep?relay,0203H
        PUBLIC ??HalKeyExitSleep?relay
        FUNCTION ??HalKeyExitSleep?relay,0203H
        PUBLIC ??HalKeyInit?relay
        FUNCTION ??HalKeyInit?relay,0203H
        PUBLIC ??HalKeyPoll?relay
        FUNCTION ??HalKeyPoll?relay,0203H
        PUBLIC ??HalKeyRead?relay
        FUNCTION ??HalKeyRead?relay,0203H
        PUBWEAK `??halKeyPort0Isr??INTVEC 107`
        PUBLIC ??halProcessKeyInterrupt?relay
        FUNCTION ??halProcessKeyInterrupt?relay,0203H
        PUBLIC HalKeyConfig
        FUNCTION HalKeyConfig,021203H
        ARGFRAME XSTACK, 0, STACK
        LOCFRAME XSTACK, 9, STACK
        PUBLIC HalKeyEnterSleep
        FUNCTION HalKeyEnterSleep,0203H
        ARGFRAME XSTACK, 0, STACK
        PUBLIC HalKeyExitSleep
        FUNCTION HalKeyExitSleep,021203H
        ARGFRAME XSTACK, 0, STACK
        LOCFRAME ISTACK, 2, STACK
        PUBLIC HalKeyInit
        FUNCTION HalKeyInit,0203H
        ARGFRAME XSTACK, 0, STACK
        LOCFRAME ISTACK, 2, STACK
        PUBLIC HalKeyPoll
        FUNCTION HalKeyPoll,0203H
        ARGFRAME XSTACK, 0, STACK
        LOCFRAME ISTACK, 2, STACK
        PUBLIC HalKeyRead
        FUNCTION HalKeyRead,0203H
        ARGFRAME XSTACK, 0, STACK
        ARGFRAME IOVERLAY, 0, STATIC
        ARGFRAME DOVERLAY, 0, STATIC
        PUBLIC Hal_KeyIntEnable
        PUBWEAK P0DIR
        PUBWEAK P0IEN
        PUBWEAK P0IFG
        PUBWEAK P0INP
        PUBWEAK P0SEL
        PUBWEAK P2INP
        PUBWEAK PICTL
        PUBWEAK _A_IEN0
        PUBWEAK _A_IEN1
        PUBWEAK _A_IRCON
        PUBWEAK _A_P0
        PUBLIC halKeyPort0Isr
        FUNCTION halKeyPort0Isr,021233H
        ARGFRAME XSTACK, 0, STACK
        LOCFRAME XSTACK, 14, STACK
        PUBLIC halProcessKeyInterrupt
        FUNCTION halProcessKeyInterrupt,021203H
        ARGFRAME XSTACK, 14, STACK
        ARGFRAME IOVERLAY, 0, STATIC
        ARGFRAME DOVERLAY, 0, STATIC
        LOCFRAME ISTACK, 2, STACK
        
        CFI Names cfiNames0
        CFI StackFrame CFA_SP SP IDATA
        CFI StackFrame CFA_PSP16 PSP16 XDATA
        CFI StackFrame CFA_XSP16 XSP16 XDATA
        CFI StaticOverlayFrame CFA_IOVERLAY IOVERLAY
        CFI StaticOverlayFrame CFA_DOVERLAY DOVERLAY
        CFI Resource `PSW.CY`:1, `B.BR0`:1, `B.BR1`:1, `B.BR2`:1, `B.BR3`:1
        CFI Resource `B.BR4`:1, `B.BR5`:1, `B.BR6`:1, `B.BR7`:1, `VB.BR8`:1
        CFI Resource `VB.BR9`:1, `VB.BR10`:1, `VB.BR11`:1, `VB.BR12`:1
        CFI Resource `VB.BR13`:1, `VB.BR14`:1, `VB.BR15`:1, VB:8, B:8, A:8
        CFI Resource PSW:8, DPL0:8, DPH0:8, R0:8, R1:8, R2:8, R3:8, R4:8, R5:8
        CFI Resource R6:8, R7:8, V0:8, V1:8, V2:8, V3:8, V4:8, V5:8, V6:8, V7:8
        CFI Resource V8:8, V9:8, V10:8, V11:8, V12:8, V13:8, V14:8, V15:8, SP:8
        CFI Resource PSPH:8, PSPL:8, PSP16:16, XSPH:8, XSPL:8, XSP16:16
        CFI VirtualResource ?RET:24
        CFI Resource ?BRET_EXT:8
        CFI VirtualResource ?RET_HIGH:8, ?RET_LOW:8
        CFI ResourceParts PSP16 PSPH, PSPL
        CFI ResourceParts XSP16 XSPH, XSPL
        CFI ResourceParts ?RET ?BRET_EXT, ?RET_HIGH, ?RET_LOW
        CFI EndNames cfiNames0
        
        CFI Common cfiCommon0 Using cfiNames0
        CFI CodeAlign 1
        CFI DataAlign -1
        CFI ReturnAddress ?RET CODE
        CFI CFA_DOVERLAY Used
        CFI CFA_IOVERLAY Used
        CFI CFA_SP SP+-3
        CFI CFA_PSP16 PSP16+0
        CFI CFA_XSP16 XSP16+0
        CFI `PSW.CY` SameValue
        CFI `B.BR0` SameValue
        CFI `B.BR1` SameValue
        CFI `B.BR2` SameValue
        CFI `B.BR3` SameValue
        CFI `B.BR4` SameValue
        CFI `B.BR5` SameValue
        CFI `B.BR6` SameValue
        CFI `B.BR7` SameValue
        CFI `VB.BR8` SameValue
        CFI `VB.BR9` SameValue
        CFI `VB.BR10` SameValue
        CFI `VB.BR11` SameValue
        CFI `VB.BR12` SameValue
        CFI `VB.BR13` SameValue
        CFI `VB.BR14` SameValue
        CFI `VB.BR15` SameValue
        CFI VB SameValue
        CFI B Undefined
        CFI A Undefined
        CFI PSW SameValue
        CFI DPL0 SameValue
        CFI DPH0 SameValue
        CFI R0 Undefined
        CFI R1 Undefined
        CFI R2 Undefined
        CFI R3 Undefined
        CFI R4 Undefined
        CFI R5 Undefined
        CFI R6 SameValue
        CFI R7 SameValue
        CFI V0 SameValue
        CFI V1 SameValue
        CFI V2 SameValue
        CFI V3 SameValue
        CFI V4 SameValue
        CFI V5 SameValue
        CFI V6 SameValue
        CFI V7 SameValue
        CFI V8 SameValue
        CFI V9 SameValue
        CFI V10 SameValue
        CFI V11 SameValue
        CFI V12 SameValue
        CFI V13 SameValue
        CFI V14 SameValue
        CFI V15 SameValue
        CFI PSPH Undefined
        CFI PSPL Undefined
        CFI XSPH Undefined
        CFI XSPL Undefined
        CFI ?RET Concat
        CFI ?BRET_EXT Frame(CFA_SP, 3)
        CFI ?RET_HIGH Frame(CFA_SP, 2)
        CFI ?RET_LOW Frame(CFA_SP, 1)
        CFI EndCommon cfiCommon0
        
        
        CFI Common cfiCommon1 Using cfiNames0
        CFI CodeAlign 1
        CFI DataAlign -1
        CFI ReturnAddress ?RET CODE
        CFI CFA_DOVERLAY Used
        CFI CFA_IOVERLAY Used
        CFI CFA_SP SP+-2
        CFI CFA_PSP16 PSP16+0
        CFI CFA_XSP16 XSP16+0
        CFI `PSW.CY` SameValue
        CFI `B.BR0` SameValue
        CFI `B.BR1` SameValue
        CFI `B.BR2` SameValue
        CFI `B.BR3` SameValue
        CFI `B.BR4` SameValue
        CFI `B.BR5` SameValue
        CFI `B.BR6` SameValue
        CFI `B.BR7` SameValue
        CFI `VB.BR8` SameValue
        CFI `VB.BR9` SameValue
        CFI `VB.BR10` SameValue
        CFI `VB.BR11` SameValue
        CFI `VB.BR12` SameValue
        CFI `VB.BR13` SameValue
        CFI `VB.BR14` SameValue
        CFI `VB.BR15` SameValue
        CFI VB SameValue
        CFI B SameValue
        CFI A SameValue
        CFI PSW SameValue
        CFI DPL0 SameValue
        CFI DPH0 SameValue
        CFI R0 SameValue
        CFI R1 SameValue
        CFI R2 SameValue
        CFI R3 SameValue
        CFI R4 SameValue
        CFI R5 SameValue
        CFI R6 SameValue
        CFI R7 SameValue
        CFI V0 SameValue
        CFI V1 SameValue
        CFI V2 SameValue
        CFI V3 SameValue
        CFI V4 SameValue
        CFI V5 SameValue
        CFI V6 SameValue
        CFI V7 SameValue
        CFI V8 SameValue
        CFI V9 SameValue
        CFI V10 SameValue
        CFI V11 SameValue
        CFI V12 SameValue
        CFI V13 SameValue
        CFI V14 SameValue
        CFI V15 SameValue
        CFI PSPH Undefined
        CFI PSPL Undefined
        CFI XSPH Undefined
        CFI XSPL Undefined
        CFI ?RET Concat
        CFI ?BRET_EXT SameValue
        CFI ?RET_HIGH Frame(CFA_SP, 2)
        CFI ?RET_LOW Frame(CFA_SP, 1)
        CFI EndCommon cfiCommon1
        
osal_stop_timerEx   SYMBOL "osal_stop_timerEx"
osal_set_event      SYMBOL "osal_set_event"
osal_start_timerEx  SYMBOL "osal_start_timerEx"
??osal_set_event?relay SYMBOL "?relay", osal_set_event
??osal_start_timerEx?relay SYMBOL "?relay", osal_start_timerEx
??osal_stop_timerEx?relay SYMBOL "?relay", osal_stop_timerEx
HalKeyConfig        SYMBOL "HalKeyConfig"
??HalKeyConfig?relay SYMBOL "?relay", HalKeyConfig
HalKeyEnterSleep    SYMBOL "HalKeyEnterSleep"
??HalKeyEnterSleep?relay SYMBOL "?relay", HalKeyEnterSleep
HalKeyExitSleep     SYMBOL "HalKeyExitSleep"
??HalKeyExitSleep?relay SYMBOL "?relay", HalKeyExitSleep
HalKeyInit          SYMBOL "HalKeyInit"
??HalKeyInit?relay  SYMBOL "?relay", HalKeyInit
HalKeyPoll          SYMBOL "HalKeyPoll"
??HalKeyPoll?relay  SYMBOL "?relay", HalKeyPoll
HalKeyRead          SYMBOL "HalKeyRead"
??HalKeyRead?relay  SYMBOL "?relay", HalKeyRead
halKeyPort0Isr      SYMBOL "halKeyPort0Isr"
`??halKeyPort0Isr??INTVEC 107` SYMBOL "??INTVEC 107", halKeyPort0Isr
halProcessKeyInterrupt SYMBOL "halProcessKeyInterrupt"
??halProcessKeyInterrupt?relay SYMBOL "?relay", halProcessKeyInterrupt

        EXTERN osal_stop_timerEx
        FUNCTION osal_stop_timerEx,0202H
        ARGFRAME ISTACK, 0, STACK
        ARGFRAME PSTACK, 0, STACK
        ARGFRAME XSTACK, 9, STACK
        ARGFRAME IOVERLAY, 0, STATIC
        ARGFRAME DOVERLAY, 0, STATIC
        EXTERN osal_set_event
        FUNCTION osal_set_event,0202H
        ARGFRAME ISTACK, 0, STACK
        ARGFRAME PSTACK, 0, STACK
        ARGFRAME XSTACK, 9, STACK
        ARGFRAME IOVERLAY, 0, STATIC
        ARGFRAME DOVERLAY, 0, STATIC
        EXTERN osal_start_timerEx
        FUNCTION osal_start_timerEx,0202H
        ARGFRAME ISTACK, 2, STACK
        ARGFRAME PSTACK, 0, STACK
        ARGFRAME XSTACK, 0, STACK
        ARGFRAME IOVERLAY, 0, STATIC
        ARGFRAME DOVERLAY, 0, STATIC
        EXTERN ??osal_set_event?relay
        FUNCTION ??osal_set_event?relay,00H
        EXTERN ??osal_start_timerEx?relay
        FUNCTION ??osal_start_timerEx?relay,00H
        EXTERN ??osal_stop_timerEx?relay
        FUNCTION ??osal_stop_timerEx?relay,00H
        EXTERN Hal_TaskID

// C:\ZigBee\SmartHomeApp\Components\hal\target\CC2530EB\hal_key.c
//    1 /**************************************************************************************************
//    2   Filename:       hal_key.c
//    3   Revised:        $Date: 2010-09-15 19:02:45 -0700 (Wed, 15 Sep 2010) $
//    4   Revision:       $Revision: 23815 $
//    5 
//    6   Description:    This file contains the interface to the HAL KEY Service.
//    7 
//    8 
//    9   Copyright 2006-2010 Texas Instruments Incorporated. All rights reserved.
//   10 
//   11   IMPORTANT: Your use of this Software is limited to those specific rights
//   12   granted under the terms of a software license agreement between the user
//   13   who downloaded the software, his/her employer (which must be your employer)
//   14   and Texas Instruments Incorporated (the "License").  You may not use this
//   15   Software unless you agree to abide by the terms of the License. The License
//   16   limits your use, and you acknowledge, that the Software may not be modified,
//   17   copied or distributed unless embedded on a Texas Instruments microcontroller
//   18   or used solely and exclusively in conjunction with a Texas Instruments radio
//   19   frequency transceiver, which is integrated into your product.  Other than for
//   20   the foregoing purpose, you may not use, reproduce, copy, prepare derivative
//   21   works of, modify, distribute, perform, display or sell this Software and/or
//   22   its documentation for any purpose.
//   23 
//   24   YOU FURTHER ACKNOWLEDGE AND AGREE THAT THE SOFTWARE AND DOCUMENTATION ARE
//   25   PROVIDED AS IS?WITHOUT WARRANTY OF ANY KIND, EITHER EXPRESS OR IMPLIED,
//   26   INCLUDING WITHOUT LIMITATION, ANY WARRANTY OF MERCHANTABILITY, TITLE,
//   27   NON-INFRINGEMENT AND FITNESS FOR A PARTICULAR PURPOSE. IN NO EVENT SHALL
//   28   TEXAS INSTRUMENTS OR ITS LICENSORS BE LIABLE OR OBLIGATED UNDER CONTRACT,
//   29   NEGLIGENCE, STRICT LIABILITY, CONTRIBUTION, BREACH OF WARRANTY, OR OTHER
//   30   LEGAL EQUITABLE THEORY ANY DIRECT OR INDIRECT DAMAGES OR EXPENSES
//   31   INCLUDING BUT NOT LIMITED TO ANY INCIDENTAL, SPECIAL, INDIRECT, PUNITIVE
//   32   OR CONSEQUENTIAL DAMAGES, LOST PROFITS OR LOST DATA, COST OF PROCUREMENT
//   33   OF SUBSTITUTE GOODS, TECHNOLOGY, SERVICES, OR ANY CLAIMS BY THIRD PARTIES
//   34   (INCLUDING BUT NOT LIMITED TO ANY DEFENSE THEREOF), OR OTHER SIMILAR COSTS.
//   35 
//   36   Should you have any questions regarding your right to use this Software,
//   37   contact Texas Instruments Incorporated at www.TI.com.
//   38 **************************************************************************************************/
//   39 /*********************************************************************
//   40  NOTE: If polling is used, the hal_driver task schedules the KeyRead()
//   41        to occur every 100ms.  This should be long enough to naturally
//   42        debounce the keys.  The KeyRead() function remembers the key
//   43        state of the previous poll and will only return a non-zero
//   44        value if the key state changes.
//   45 
//   46  NOTE: If interrupts are used, the KeyRead() function is scheduled
//   47        25ms after the interrupt occurs by the ISR.  This delay is used
//   48        for key debouncing.  The ISR disables any further Key interrupt
//   49        until KeyRead() is executed.  KeyRead() will re-enable Key
//   50        interrupts after executing.  Unlike polling, when interrupts
//   51        are enabled, the previous key state is not remembered.  This
//   52        means that KeyRead() will return the current state of the keys
//   53        (not a change in state of the keys).
//   54 
//   55  NOTE: If interrupts are used, the KeyRead() fucntion is scheduled by
//   56        the ISR.  Therefore, the joystick movements will only be detected
//   57        during a pushbutton interrupt caused by S1 or the center joystick
//   58        pushbutton.
//   59 
//   60  NOTE: When a switch like S1 is pushed, the S1 signal goes from a normally
//   61        high state to a low state.  This transition is typically clean.  The
//   62        duration of the low state is around 200ms.  When the signal returns
//   63        to the high state, there is a high likelihood of signal bounce, which
//   64        causes a unwanted interrupts.  Normally, we would set the interrupt
//   65        edge to falling edge to generate an interrupt when S1 is pushed, but
//   66        because of the signal bounce, it is better to set the edge to rising
//   67        edge to generate an interrupt when S1 is released.  The debounce logic
//   68        can then filter out the signal bounce.  The result is that we typically
//   69        get only 1 interrupt per button push.  This mechanism is not totally
//   70        foolproof because occasionally, signal bound occurs during the falling
//   71        edge as well.  A similar mechanism is used to handle the joystick
//   72        pushbutton on the DB.  For the EB, we do not have independent control
//   73        of the interrupt edge for the S1 and center joystick pushbutton.  As
//   74        a result, only one or the other pushbuttons work reasonably well with
//   75        interrupts.  The default is the make the S1 switch on the EB work more
//   76        reliably.
//   77 
//   78 *********************************************************************/
//   79 
//   80 /**************************************************************************************************
//   81  *                                            INCLUDES
//   82  **************************************************************************************************/
//   83 #include "hal_mcu.h"

        ASEGN SFR_AN:DATA:NOROOT,080H
// union <unnamed> volatile __sfr _A_P0
_A_P0:
        DATA8
        DS 1

        ASEGN SFR_AN:DATA:NOROOT,089H
// unsigned char volatile __sfr P0IFG
P0IFG:
        DATA8
        DS 1

        ASEGN SFR_AN:DATA:NOROOT,08cH
// unsigned char volatile __sfr PICTL
PICTL:
        DATA8
        DS 1

        ASEGN SFR_AN:DATA:NOROOT,08fH
// unsigned char volatile __sfr P0INP
P0INP:
        DATA8
        DS 1

        ASEGN SFR_AN:DATA:NOROOT,0a8H
// union <unnamed> volatile __sfr _A_IEN0
_A_IEN0:
        DATA8
        DS 1

        ASEGN SFR_AN:DATA:NOROOT,0abH
// unsigned char volatile __sfr P0IEN
P0IEN:
        DATA8
        DS 1

        ASEGN SFR_AN:DATA:NOROOT,0b8H
// union <unnamed> volatile __sfr _A_IEN1
_A_IEN1:
        DATA8
        DS 1

        ASEGN SFR_AN:DATA:NOROOT,0c0H
// union <unnamed> volatile __sfr _A_IRCON
_A_IRCON:
        DATA8
        DS 1

        ASEGN SFR_AN:DATA:NOROOT,0f3H
// unsigned char volatile __sfr P0SEL
P0SEL:
        DATA8
        DS 1

        ASEGN SFR_AN:DATA:NOROOT,0f7H
// unsigned char volatile __sfr P2INP
P2INP:
        DATA8
        DS 1

        ASEGN SFR_AN:DATA:NOROOT,0fdH
// unsigned char volatile __sfr P0DIR
P0DIR:
        DATA8
        DS 1
//   84 #include "hal_defs.h"
//   85 #include "hal_types.h"
//   86 #include "hal_board.h"
//   87 #include "hal_drivers.h"
//   88 #include "hal_adc.h"
//   89 #include "hal_key.h"
//   90 #include "osal.h"
//   91 
//   92 #if (defined HAL_KEY) && (HAL_KEY == TRUE)
//   93 
//   94 /**************************************************************************************************
//   95  *                                              MACROS
//   96  **************************************************************************************************/
//   97 
//   98 /**************************************************************************************************
//   99  *                                            CONSTANTS
//  100  **************************************************************************************************/
//  101 #define HAL_KEY_RISING_EDGE   0
//  102 #define HAL_KEY_FALLING_EDGE  1
//  103 
//  104 #define HAL_KEY_DEBOUNCE_VALUE  25
//  105 
//  106 /* CPU port interrupt */
//  107 #define HAL_KEY_CPU_PORT_0_IF P0IF
//  108 //#define HAL_KEY_CPU_PORT_2_IF P2IF
//  109 
//  110 /* SW_6 is at P0.1 */
//  111 #define HAL_KEY_PORT   P0
//  112 
//  113 #define HAL_KEY_SEL    P0SEL
//  114 #define HAL_KEY_DIR    P0DIR
//  115 
//  116 /* edge interrupt */
//  117 #define HAL_KEY_EDGEBIT  BV(0)
//  118 #define HAL_KEY_EDGE     HAL_KEY_FALLING_EDGE
//  119 
//  120 
//  121 /* SW_6 interrupts */
//  122 #define HAL_KEY_IEN      IEN1  /* CPU interrupt mask register */
//  123 #define HAL_KEY_IENBIT   BV(5) /* Mask bit for all of Port_0 */
//  124 #define HAL_KEY_ICTL     P0IEN /* Port Interrupt Control register */
//  125 //#define HAL_KEY_SW_6_ICTLBIT  BV(4) /* P0IEN - P0.1 enable/disable bit */
//  126 #define HAL_KEY_PXIFG    P0IFG /* Interrupt flag at source */
//  127 
//  128 
//  129 #define HAL_KEY_SW_4_PIN P0_4
//  130 #define HAL_KEY_SW_4_BIT    BV(4)
//  131 
//  132 #define HAL_KEY_SW_5_PIN P0_5
//  133 #define HAL_KEY_SW_5_BIT    BV(5)
//  134 
//  135 //#define HAL_KEY_SW_6_ICTLBIT  BV(4) /* P0IEN - P0.1 enable/disable bit */
//  136 
//  137 ///* Joy stick move at P2.0 */
//  138 //#define HAL_KEY_JOY_MOVE_PORT   P2
//  139 //#define HAL_KEY_JOY_MOVE_BIT    BV(0)
//  140 //#define HAL_KEY_JOY_MOVE_SEL    P2SEL
//  141 //#define HAL_KEY_JOY_MOVE_DIR    P2DIR
//  142 //
//  143 ///* edge interrupt */
//  144 //#define HAL_KEY_JOY_MOVE_EDGEBIT  BV(3)
//  145 //#define HAL_KEY_JOY_MOVE_EDGE     HAL_KEY_FALLING_EDGE
//  146 //
//  147 ///* Joy move interrupts */
//  148 //#define HAL_KEY_JOY_MOVE_IEN      IEN2  /* CPU interrupt mask register */
//  149 //#define HAL_KEY_JOY_MOVE_IENBIT   BV(1) /* Mask bit for all of Port_2 */
//  150 //#define HAL_KEY_JOY_MOVE_ICTL     P2IEN /* Port Interrupt Control register */
//  151 //#define HAL_KEY_JOY_MOVE_ICTLBIT  BV(0) /* P2IENL - P2.0<->P2.3 enable/disable bit */
//  152 //#define HAL_KEY_JOY_MOVE_PXIFG    P2IFG /* Interrupt flag at source */
//  153 //
//  154 //#define HAL_KEY_JOY_CHN   HAL_ADC_CHANNEL_6
//  155 
//  156 
//  157 /**************************************************************************************************
//  158  *                                            TYPEDEFS
//  159  **************************************************************************************************/
//  160 
//  161 
//  162 /**************************************************************************************************
//  163  *                                        GLOBAL VARIABLES
//  164  **************************************************************************************************/

        RSEG XDATA_Z:XDATA:NOROOT(0)
        DATA8
//  165 static uint8 halKeySavedKeys;     /* used to store previous key state in polling mode */
halKeySavedKeys:
        DS 1
        REQUIRE __INIT_XDATA_Z

        RSEG XDATA_Z:XDATA:NOROOT(0)
        DATA16
//  166 static halKeyCBack_t pHalKeyProcessFunction;
pHalKeyProcessFunction:
        DS 2
        REQUIRE __INIT_XDATA_Z

        RSEG XDATA_Z:XDATA:NOROOT(0)
        DATA8
//  167 static uint8 HalKeyConfigured;
HalKeyConfigured:
        DS 1
        REQUIRE __INIT_XDATA_Z

        RSEG XDATA_Z:XDATA:NOROOT(0)
        DATA8
//  168 bool Hal_KeyIntEnable;            /* interrupt enable/disable flag */
Hal_KeyIntEnable:
        DS 1
        REQUIRE __INIT_XDATA_Z
//  169 
//  170 /**************************************************************************************************
//  171  *                                        FUNCTIONS - Local
//  172  **************************************************************************************************/
//  173 void halProcessKeyInterrupt(void);
//  174 //uint8 halGetJoyKeyInput(void);
//  175 
//  176 
//  177 
//  178 /**************************************************************************************************
//  179  *                                        FUNCTIONS - API
//  180  **************************************************************************************************/
//  181 
//  182 
//  183 /**************************************************************************************************
//  184  * @fn      HalKeyInit
//  185  *
//  186  * @brief   Initilize Key Service
//  187  *
//  188  * @param   none
//  189  *
//  190  * @return  None
//  191  **************************************************************************************************/

        RSEG BANKED_CODE:CODE:NOROOT(0)
//  192 void HalKeyInit( void )
HalKeyInit:
        CFI Block cfiBlock0 Using cfiCommon0
        CFI Function HalKeyInit
        CODE
//  193 {
        PUSH    DPL
        CFI DPL0 Frame(CFA_SP, 4)
        CFI CFA_SP SP+-4
        PUSH    DPH
        CFI DPH0 Frame(CFA_SP, 5)
        CFI CFA_SP SP+-5
        ; Saved register size: 2
        ; Auto size: 0
//  194   /* Initialize previous key to 0 */
//  195   halKeySavedKeys = 0;
        MOV     DPTR,#halKeySavedKeys
        CLR     A
        LCALL   ?Subroutine1 & 0xFFFF
//  196   
//  197 //    P0INP &= ~(HAL_KEY_SW_4_BIT|HAL_KEY_SW_5_BIT|HAL_KEY_SW_6_BIT);
//  198 //    P0SEL &= ~(HAL_KEY_SW_4_BIT|HAL_KEY_SW_5_BIT|HAL_KEY_SW_6_BIT);    /* Set pin function to GPIO */
//  199 //    P0DIR &= ~(HAL_KEY_SW_4_BIT|HAL_KEY_SW_5_BIT|HAL_KEY_SW_6_BIT);    /* Set pin direction to Input */
//  200 //    P2INP &= ~(0x20); // 0010 0000
//  201 //   
//  202 //    P0INP &= ~(HAL_KEY_SW_5_BIT|HAL_KEY_SW_6_BIT);  //0x30 0011 0000
//  203 //    P0SEL &= ~(HAL_KEY_SW_5_BIT|HAL_KEY_SW_6_BIT);    /* Set pin function to GPIO */
//  204 //    P0DIR &= ~(HAL_KEY_SW_5_BIT|HAL_KEY_SW_6_BIT);    /* Set pin direction to Input */
//  205 //    P2INP &= ~(0x20); // 0010 0000
//  206 //    
//  207     
//  208     P0SEL &= ~(HAL_KEY_SW_4_BIT|HAL_KEY_SW_5_BIT);    /* Set pin function to GPIO */
//  209     P0DIR &= ~(HAL_KEY_SW_4_BIT|HAL_KEY_SW_5_BIT);    /* Set pin direction to Input */
//  210     P0INP &= ~(HAL_KEY_SW_4_BIT|HAL_KEY_SW_5_BIT);  //0x30 0011 0000
//  211     P2INP &= ~(0x20); // 0010 0000
//  212     
//  213 //  
//  214 //  HAL_KEY_SEL &= ~(HAL_KEY_SW_5_BIT);    /* Set pin function to GPIO */
//  215 //  HAL_KEY_DIR &= ~(HAL_KEY_SW_5_BIT);    /* Set pin direction to Input */
//  216 //  
//  217 //  HAL_KEY_SEL &= ~(HAL_KEY_SW_6_BIT);    /* Set pin function to GPIO */
//  218 //  HAL_KEY_DIR &= ~(HAL_KEY_SW_6_BIT);    /* Set pin direction to Input */
//  219 
//  220 //  HAL_KEY_JOY_MOVE_SEL &= ~(HAL_KEY_JOY_MOVE_BIT); /* Set pin function to GPIO */
//  221 //  HAL_KEY_JOY_MOVE_DIR &= ~(HAL_KEY_JOY_MOVE_BIT); /* Set pin direction to Input */
//  222 
//  223 
//  224   /* Initialize callback function */
//  225   pHalKeyProcessFunction  = NULL;
??CrossCallReturnLabel_0:
        MOV     DPTR,#pHalKeyProcessFunction
        MOVX    @DPTR,A
        INC     DPTR
        MOVX    @DPTR,A
//  226 
//  227   /* Start with key is not configured */
//  228   HalKeyConfigured = FALSE;
        MOV     DPTR,#HalKeyConfigured
        MOVX    @DPTR,A
//  229 }
        LJMP    ?Subroutine0 & 0xFFFF
        CFI EndBlock cfiBlock0
        REQUIRE P0SEL
        REQUIRE P0DIR
        REQUIRE P0INP
        REQUIRE P2INP
//  230 
//  231 
//  232 /**************************************************************************************************
//  233  * @fn      HalKeyConfig
//  234  *
//  235  * @brief   Configure the Key serivce
//  236  *
//  237  * @param   interruptEnable - TRUE/FALSE, enable/disable interrupt
//  238  *          cback - pointer to the CallBack function
//  239  *
//  240  * @return  None
//  241  **************************************************************************************************/

        RSEG BANKED_CODE:CODE:NOROOT(0)
//  242 void HalKeyConfig (bool interruptEnable, halKeyCBack_t cback)
HalKeyConfig:
        CFI Block cfiBlock1 Using cfiCommon0
        CFI Function HalKeyConfig
        CODE
//  243 {
        FUNCALL HalKeyConfig, osal_stop_timerEx
        LOCFRAME ISTACK, 0, STACK
        LOCFRAME PSTACK, 0, STACK
        LOCFRAME XSTACK, 9, STACK
        LOCFRAME IOVERLAY, 0, STATIC
        LOCFRAME DOVERLAY, 0, STATIC
        ARGFRAME ISTACK, 0, STACK
        ARGFRAME PSTACK, 0, STACK
        ARGFRAME XSTACK, 9, STACK
        ARGFRAME IOVERLAY, 0, STATIC
        ARGFRAME DOVERLAY, 0, STATIC
        FUNCALL HalKeyConfig, osal_set_event
        LOCFRAME ISTACK, 0, STACK
        LOCFRAME PSTACK, 0, STACK
        LOCFRAME XSTACK, 9, STACK
        LOCFRAME IOVERLAY, 0, STATIC
        LOCFRAME DOVERLAY, 0, STATIC
        ARGFRAME ISTACK, 0, STACK
        ARGFRAME PSTACK, 0, STACK
        ARGFRAME XSTACK, 9, STACK
        ARGFRAME IOVERLAY, 0, STATIC
        ARGFRAME DOVERLAY, 0, STATIC
        MOV     A,#-0x9
        LCALL   ?BANKED_ENTER_XDATA
        CFI DPH0 load(1, XDATA, add(CFA_XSP16, literal(-1)))
        CFI DPL0 load(1, XDATA, add(CFA_XSP16, literal(-2)))
        CFI ?BRET_EXT load(1, XDATA, add(CFA_XSP16, literal(-3)))
        CFI ?RET_HIGH load(1, XDATA, add(CFA_XSP16, literal(-4)))
        CFI ?RET_LOW load(1, XDATA, add(CFA_XSP16, literal(-5)))
        CFI R7 load(1, XDATA, add(CFA_XSP16, literal(-6)))
        CFI V0 load(1, XDATA, add(CFA_XSP16, literal(-7)))
        CFI VB load(1, XDATA, add(CFA_XSP16, literal(-8)))
        CFI R6 load(1, XDATA, add(CFA_XSP16, literal(-9)))
        CFI CFA_SP SP+0
        CFI CFA_XSP16 add(XSP16, 9)
        ; Saved register size: 9
        ; Auto size: 0
        MOV     A,R1
//  244   /* Enable/Disable Interrupt or */
//  245   Hal_KeyIntEnable = interruptEnable;
        MOV     DPTR,#Hal_KeyIntEnable
        MOVX    @DPTR,A
//  246 
//  247   /* Register the callback fucntion */
//  248   pHalKeyProcessFunction = cback;
        MOV     DPTR,#pHalKeyProcessFunction
        MOV     A,R2
        MOVX    @DPTR,A
        INC     DPTR
        MOV     A,R3
        LCALL   ?Subroutine1 & 0xFFFF
//  249 
//  250     P0SEL &= ~(HAL_KEY_SW_4_BIT|HAL_KEY_SW_5_BIT);    /* Set pin function to GPIO */
//  251     P0DIR &= ~(HAL_KEY_SW_4_BIT|HAL_KEY_SW_5_BIT);    /* Set pin direction to Input */
//  252     P0INP &= ~(HAL_KEY_SW_4_BIT|HAL_KEY_SW_5_BIT);  //0x30 0011 0000
//  253     P2INP &= ~(0x20); // 0010 0000
//  254     
//  255   /* Determine if interrupt is enable or not */
//  256   if (Hal_KeyIntEnable)
??CrossCallReturnLabel_1:
        MOV     DPTR,#Hal_KeyIntEnable
        MOVX    A,@DPTR
        JZ      ??HalKeyConfig_0
//  257   {
//  258    
//  259     /* Rising/Falling edge configuratinn */
//  260 
//  261     PICTL |= 0x01;
        ORL     0x8c,#0x1
//  262     P0IEN |= HAL_KEY_SW_4_BIT|HAL_KEY_SW_5_BIT; // SW4, SW5
        ORL     0xab,#0x30
//  263     P0IE = 1;
        SETB    0xb8.5
//  264     P0IFG = 0;
        MOV     0x89,#0x0
//  265     //EA=1;
//  266     
//  267     
//  268     
//  269 //    PICTL &= ~(HAL_KEY_EDGEBIT);    /* Clear the edge bit */
//  270 //    /* For falling edge, the bit must be set. */
//  271 //  #if (HAL_KEY_EDGE == HAL_KEY_FALLING_EDGE)
//  272 //    PICTL |= HAL_KEY_EDGEBIT;
//  273 //  #endif
//  274 //
//  275 //
//  276 //    /* Interrupt configuration:
//  277 //     * - Enable interrupt generation at the port
//  278 //     * - Enable CPU interrupt
//  279 //     * - Clear any pending interrupt
//  280 //     */
//  281 //    HAL_KEY_ICTL |= (HAL_KEY_SW_4_BIT|HAL_KEY_SW_5_BIT|HAL_KEY_SW_6_BIT);
//  282 ////    HAL_KEY_ICTL |= HAL_KEY_SW_5_BIT;
//  283 ////    HAL_KEY_ICTL |= HAL_KEY_SW_6_BIT;
//  284 //    HAL_KEY_IEN |= HAL_KEY_IENBIT;
//  285 //    
//  286 ////    HAL_KEY_PXIFG = ~(HAL_KEY_SW_4_BIT | HAL_KEY_SW_5_BIT | HAL_KEY_SW_6_BIT);
//  287 //    HAL_KEY_PXIFG = 0;
//  288 
//  289 //    PICTL |= 0x1;    //下降沿触发   
//  290 //    IEN1 |= 0x20;    //允许P0口中断; 
//  291 //    P0IFG = 0x00;    //初始化中断标志位
//  292 //    EA = 1;          
//  293 //    
//  294     /* Rising/Falling edge configuratinn */
//  295 
//  296 //    HAL_KEY_JOY_MOVE_ICTL &= ~(HAL_KEY_JOY_MOVE_EDGEBIT);    /* Clear the edge bit */
//  297 //    /* For falling edge, the bit must be set. */
//  298 //  #if (HAL_KEY_JOY_MOVE_EDGE == HAL_KEY_FALLING_EDGE)
//  299 //    HAL_KEY_JOY_MOVE_ICTL |= HAL_KEY_JOY_MOVE_EDGEBIT;
//  300 //  #endif
//  301 
//  302 
//  303     /* Interrupt configuration:
//  304      * - Enable interrupt generation at the port
//  305      * - Enable CPU interrupt
//  306      * - Clear any pending interrupt
//  307      */
//  308 //    HAL_KEY_JOY_MOVE_ICTL |= HAL_KEY_JOY_MOVE_ICTLBIT;
//  309 //    HAL_KEY_JOY_MOVE_IEN |= HAL_KEY_JOY_MOVE_IENBIT;
//  310 //    HAL_KEY_JOY_MOVE_PXIFG = ~(HAL_KEY_JOY_MOVE_BIT);
//  311 
//  312 
//  313     /* Do this only after the hal_key is configured - to work with sleep stuff */
//  314     if (HalKeyConfigured == TRUE)
        MOV     DPTR,#HalKeyConfigured
        MOVX    A,@DPTR
        XRL     A,#0x1
        JNZ     ??HalKeyConfig_1
//  315     {
//  316       osal_stop_timerEx(Hal_TaskID, HAL_KEY_EVENT);  /* Cancel polling if active */
        ; Setup parameters for call to function osal_stop_timerEx
        MOV     R2,#0x1
        MOV     R3,#0x0
        MOV     DPTR,#Hal_TaskID
        MOVX    A,@DPTR
        MOV     R1,A
        LCALL   ??osal_stop_timerEx?relay
        SJMP    ??HalKeyConfig_1
//  317     }
//  318   }
//  319   else    /* Interrupts NOT enabled */
//  320   {
//  321     HAL_KEY_ICTL &= ~(HAL_KEY_SW_4_BIT|HAL_KEY_SW_5_BIT); /* don't generate interrupt */
??HalKeyConfig_0:
        ANL     0xab,#0xcf
//  322     
//  323 //    HAL_KEY_ICTL &= ~(HAL_KEY_SW_5_BIT); /* don't generate interrupt */
//  324 //    HAL_KEY_ICTL &= ~(HAL_KEY_SW_6_BIT); /* don't generate interrupt */
//  325     HAL_KEY_IEN &= ~(HAL_KEY_IENBIT);   /* Clear interrupt enable bit */
        CLR     0xb8.5
//  326 
//  327     osal_set_event(Hal_TaskID, HAL_KEY_EVENT);
        ; Setup parameters for call to function osal_set_event
        MOV     R2,#0x1
        MOV     R3,#0x0
        MOV     DPTR,#Hal_TaskID
        MOVX    A,@DPTR
        MOV     R1,A
        LCALL   ??osal_set_event?relay
//  328   }
//  329 
//  330   /* Key now is configured */
//  331   HalKeyConfigured = TRUE;
??HalKeyConfig_1:
        MOV     DPTR,#HalKeyConfigured
        MOV     A,#0x1
        MOVX    @DPTR,A
//  332 }
        MOV     R7,A
        LJMP    ?BANKED_LEAVE_XDATA
        CFI EndBlock cfiBlock1
        REQUIRE P0SEL
        REQUIRE P0DIR
        REQUIRE P0INP
        REQUIRE P2INP
        REQUIRE PICTL
        REQUIRE P0IEN
        REQUIRE _A_IEN1
        REQUIRE P0IFG

        RSEG BANKED_CODE:CODE:NOROOT(0)
?Subroutine1:
        CFI Block cfiCond2 Using cfiCommon0
        CFI NoFunction
        CFI Conditional ??CrossCallReturnLabel_0
        CFI DPL0 Frame(CFA_SP, 4)
        CFI DPH0 Frame(CFA_SP, 5)
        CFI CFA_SP SP+-5
        CFI Block cfiCond3 Using cfiCommon0
        CFI (cfiCond3) NoFunction
        CFI (cfiCond3) Conditional ??CrossCallReturnLabel_1
        CFI (cfiCond3) R6 load(1, XDATA, add(CFA_XSP16, literal(-9)))
        CFI (cfiCond3) VB load(1, XDATA, add(CFA_XSP16, literal(-8)))
        CFI (cfiCond3) V0 load(1, XDATA, add(CFA_XSP16, literal(-7)))
        CFI (cfiCond3) R7 load(1, XDATA, add(CFA_XSP16, literal(-6)))
        CFI (cfiCond3) ?RET_LOW load(1, XDATA, add(CFA_XSP16, literal(-5)))
        CFI (cfiCond3) ?RET_HIGH load(1, XDATA, add(CFA_XSP16, literal(-4)))
        CFI (cfiCond3) ?BRET_EXT load(1, XDATA, add(CFA_XSP16, literal(-3)))
        CFI (cfiCond3) DPL0 load(1, XDATA, add(CFA_XSP16, literal(-2)))
        CFI (cfiCond3) DPH0 load(1, XDATA, add(CFA_XSP16, literal(-1)))
        CFI (cfiCond3) CFA_SP SP+0
        CFI (cfiCond3) CFA_XSP16 add(XSP16, 9)
        CFI Block cfiPicker4 Using cfiCommon1
        CFI (cfiPicker4) NoFunction
        CFI (cfiPicker4) Picker
        MOVX    @DPTR,A
        ANL     0xf3,#0xcf
        ANL     0xfd,#0xcf
        ANL     0x8f,#0xcf
        ANL     0xf7,#0xdf
        RET
        CFI EndBlock cfiCond2
        CFI EndBlock cfiCond3
        CFI EndBlock cfiPicker4
//  333 
//  334 
//  335 /**************************************************************************************************
//  336  * @fn      HalKeyRead
//  337  *
//  338  * @brief   Read the current value of a key
//  339  *
//  340  * @param   None
//  341  *
//  342  * @return  keys - current keys status
//  343  **************************************************************************************************/

        RSEG BANKED_CODE:CODE:NOROOT(0)
//  344 uint8 HalKeyRead ( void )
HalKeyRead:
        CFI Block cfiBlock5 Using cfiCommon0
        CFI Function HalKeyRead
        CODE
//  345 {
        ; Saved register size: 0
        ; Auto size: 0
//  346   uint8 keys = 0;
        MOV     R1,#0x0
//  347   
//  348    if (HAL_KEY_SW_4_PIN == 0)
        MOV     C,0x80.4
        JC      ??HalKeyRead_0
//  349   {
//  350     keys |= HAL_KEY_SW_4;
        MOV     R1,#0x8
//  351   }
//  352   
//  353    if (HAL_KEY_SW_5_PIN == 0)
??HalKeyRead_0:
        MOV     C,0x80.5
        JC      ??HalKeyRead_1
//  354   {
//  355     keys |= HAL_KEY_SW_5;
        MOV     A,R1
        SETB    0xE0 /* A   */.2
        MOV     R1,A
//  356   }
//  357 
//  358 //  if ((HAL_KEY_JOY_MOVE_PORT & HAL_KEY_JOY_MOVE_BIT))  /* Key is active low */
//  359 //  {
//  360 //    keys |= halGetJoyKeyInput();
//  361 //  }
//  362 
//  363   return keys;
??HalKeyRead_1:
        LJMP    ?BRET
        CFI EndBlock cfiBlock5
        REQUIRE _A_P0
//  364 }
//  365 
//  366 
//  367 /**************************************************************************************************
//  368  * @fn      HalKeyPoll
//  369  *
//  370  * @brief   Called by hal_driver to poll the keys
//  371  *
//  372  * @param   None
//  373  *
//  374  * @return  None
//  375  **************************************************************************************************/

        RSEG BANKED_CODE:CODE:NOROOT(0)
//  376 void HalKeyPoll (void)
HalKeyPoll:
        CFI Block cfiBlock6 Using cfiCommon0
        CFI Function HalKeyPoll
        CODE
//  377 {
        PUSH    DPL
        CFI DPL0 Frame(CFA_SP, 4)
        CFI CFA_SP SP+-4
        PUSH    DPH
        CFI DPH0 Frame(CFA_SP, 5)
        CFI CFA_SP SP+-5
        ; Saved register size: 2
        ; Auto size: 0
//  378   uint8 keys = 0;
        MOV     R1,#0x0
//  379 
//  380 //  if ((HAL_KEY_JOY_MOVE_PORT & HAL_KEY_JOY_MOVE_BIT))  /* Key is active HIGH */
//  381 //  {
//  382 //    keys = halGetJoyKeyInput();
//  383 //  }
//  384 
//  385   /* If interrupts are not enabled, previous key status and current key status
//  386    * are compared to find out if a key has changed status.
//  387    */
//  388   
//  389   if (HAL_KEY_SW_4_PIN == 0)
        MOV     C,0x80.4
        JC      ??HalKeyPoll_0
//  390   {
//  391     keys |= HAL_KEY_SW_4;
        MOV     R1,#0x8
//  392   }
//  393   
//  394   if (HAL_KEY_SW_5_PIN == 0)
??HalKeyPoll_0:
        MOV     C,0x80.5
        JC      ??HalKeyPoll_1
//  395   {
//  396     keys |= HAL_KEY_SW_5;
        MOV     A,R1
        SETB    0xE0 /* A   */.2
        MOV     R1,A
//  397   }
//  398 
//  399   
//  400   if (!Hal_KeyIntEnable)
??HalKeyPoll_1:
        MOV     DPTR,#Hal_KeyIntEnable
        MOVX    A,@DPTR
        JNZ     ??HalKeyPoll_2
//  401   {
//  402     if (keys == halKeySavedKeys)
        MOV     DPTR,#halKeySavedKeys
        MOVX    A,@DPTR
        XRL     A,R1
        JZ      ??HalKeyPoll_3
//  403     {
//  404       /* Exit - since no keys have changed */
//  405       return;
//  406     }
//  407     /* Store the current keys for comparation next time */
//  408     halKeySavedKeys = keys;
        MOV     A,R1
        MOVX    @DPTR,A
//  409   }
//  410   else
//  411   {
//  412     /* Key interrupt handled here */
//  413   }
//  414 
//  415 
//  416   /* Invoke Callback if new keys were depressed */
//  417   if (keys && (pHalKeyProcessFunction))
??HalKeyPoll_2:
        MOV     A,R1
        JZ      ??HalKeyPoll_3
        MOV     DPTR,#pHalKeyProcessFunction
        MOVX    A,@DPTR
        MOV     R2,A
        INC     DPTR
        MOVX    A,@DPTR
        MOV     R3,A
        MOV     A,R2
        ORL     A,R3
        JZ      ??HalKeyPoll_3
//  418   {
//  419     (pHalKeyProcessFunction) (keys, HAL_KEY_STATE_NORMAL);
        ; Setup parameters for indirect call
        MOV     R2,#0x0
        MOV     DPTR,#pHalKeyProcessFunction
        MOVX    A,@DPTR
        MOV     R0,A
        INC     DPTR
        MOVX    A,@DPTR
        MOV     DPH,A
        MOV     DPL,R0
        LCALL   ?CALL_IND
//  420   }
??HalKeyPoll_3:
        SJMP    ?Subroutine0
        CFI EndBlock cfiBlock6
        REQUIRE _A_P0
//  421 }
//  422 
//  423 /**************************************************************************************************
//  424  * @fn      halGetJoyKeyInput
//  425  *
//  426  * @brief   Map the ADC value to its corresponding key.
//  427  *
//  428  * @param   None
//  429  *
//  430  * @return  keys - current joy key status
//  431  **************************************************************************************************/
//  432 //uint8 halGetJoyKeyInput(void)
//  433 //{
//  434 //  /* The joystick control is encoded as an analog voltage.
//  435 //   * Read the JOY_LEVEL analog value and map it to joy movement.
//  436 //   */
//  437 //  uint8 adc;
//  438 //  uint8 ksave0 = 0;
//  439 //  uint8 ksave1;
//  440 //
//  441 //  /* Keep on reading the ADC until two consecutive key decisions are the same. */
//  442 //  do
//  443 //  {
//  444 //    ksave1 = ksave0;    /* save previouse key reading */
//  445 //
//  446 //    adc = HalAdcRead (HAL_KEY_JOY_CHN, HAL_ADC_RESOLUTION_8);
//  447 //
//  448 //    if ((adc >= 2) && (adc <= 38))
//  449 //    {
//  450 //       ksave0 |= HAL_KEY_UP;
//  451 //    }
//  452 //    else if ((adc >= 74) && (adc <= 88))
//  453 //    {
//  454 //      ksave0 |= HAL_KEY_RIGHT;
//  455 //    }
//  456 //    else if ((adc >= 60) && (adc <= 73))
//  457 //    {
//  458 //      ksave0 |= HAL_KEY_LEFT;
//  459 //    }
//  460 //    else if ((adc >= 39) && (adc <= 59))
//  461 //    {
//  462 //      ksave0 |= HAL_KEY_DOWN;
//  463 //    }
//  464 //    else if ((adc >= 89) && (adc <= 100))
//  465 //    {
//  466 //      ksave0 |= HAL_KEY_CENTER;
//  467 //    }
//  468 //  } while (ksave0 != ksave1);
//  469 //
//  470 //  return ksave0;
//  471 //}
//  472 //
//  473 //
//  474 
//  475 
//  476 
//  477 /**************************************************************************************************
//  478  * @fn      halProcessKeyInterrupt
//  479  *
//  480  * @brief   Checks to see if it's a valid key interrupt, saves interrupt driven key states for
//  481  *          processing by HalKeyRead(), and debounces keys by scheduling HalKeyRead() 25ms later.
//  482  *
//  483  * @param
//  484  *
//  485  * @return
//  486  **************************************************************************************************/

        RSEG BANKED_CODE:CODE:NOROOT(0)
//  487 void halProcessKeyInterrupt (void)
halProcessKeyInterrupt:
        CFI Block cfiBlock7 Using cfiCommon0
        CFI Function halProcessKeyInterrupt
        CODE
//  488 {
        FUNCALL halProcessKeyInterrupt, osal_start_timerEx
        LOCFRAME ISTACK, 2, STACK
        LOCFRAME PSTACK, 0, STACK
        LOCFRAME XSTACK, 0, STACK
        LOCFRAME IOVERLAY, 0, STATIC
        LOCFRAME DOVERLAY, 0, STATIC
        ARGFRAME ISTACK, 2, STACK
        ARGFRAME PSTACK, 0, STACK
        ARGFRAME XSTACK, 0, STACK
        ARGFRAME IOVERLAY, 0, STATIC
        ARGFRAME DOVERLAY, 0, STATIC
        PUSH    DPL
        CFI DPL0 Frame(CFA_SP, 4)
        CFI CFA_SP SP+-4
        PUSH    DPH
        CFI DPH0 Frame(CFA_SP, 5)
        CFI CFA_SP SP+-5
        ; Saved register size: 2
        ; Auto size: 0
//  489   bool valid=FALSE;
        MOV     R0,#0x0
//  490 
//  491   if (HAL_KEY_PXIFG & HAL_KEY_SW_4_BIT)  /* Interrupt Flag has been set */
        MOV     A,0x89
        MOV     C,0xE0 /* A   */.4
        JNC     ??halProcessKeyInterrupt_0
//  492   {
//  493     HAL_KEY_PXIFG &= ~(HAL_KEY_SW_4_BIT); /* Clear Interrupt Flag */
        ANL     0x89,#0xef
//  494     valid = TRUE;
        INC     R0
//  495   }
//  496   
//  497   if (HAL_KEY_PXIFG & HAL_KEY_SW_5_BIT)  /* Interrupt Flag has been set */
??halProcessKeyInterrupt_0:
        MOV     A,0x89
        MOV     C,0xE0 /* A   */.5
        JNC     ??halProcessKeyInterrupt_1
//  498   {
//  499     HAL_KEY_PXIFG &= ~(HAL_KEY_SW_5_BIT); /* Clear Interrupt Flag */
        ANL     0x89,#0xdf
//  500     valid = TRUE;
        SJMP    ??halProcessKeyInterrupt_2
//  501   }
//  502 //  if (HAL_KEY_JOY_MOVE_PXIFG & HAL_KEY_JOY_MOVE_BIT)  /* Interrupt Flag has been set */
//  503 //  {
//  504 //    HAL_KEY_JOY_MOVE_PXIFG = ~(HAL_KEY_JOY_MOVE_BIT); /* Clear Interrupt Flag */
//  505 //    valid = TRUE;
//  506 //  }
//  507 
//  508   if (valid)
??halProcessKeyInterrupt_1:
        MOV     A,R0
        MOV     C,0xE0 /* A   */.0
        JNC     ??halProcessKeyInterrupt_3
//  509   {
//  510     osal_start_timerEx (Hal_TaskID, HAL_KEY_EVENT, HAL_KEY_DEBOUNCE_VALUE);
??halProcessKeyInterrupt_2:
        ; Setup parameters for call to function osal_start_timerEx
        MOV     R4,#0x19
        MOV     R5,#0x0
        MOV     R2,#0x1
        MOV     R3,#0x0
        MOV     DPTR,#Hal_TaskID
        MOVX    A,@DPTR
        MOV     R1,A
        LCALL   ??osal_start_timerEx?relay
        CFI EndBlock cfiBlock7
//  511   }
//  512 }
??halProcessKeyInterrupt_3:
        REQUIRE ?Subroutine0
        REQUIRE P0IFG
        ; // Fall through to label ?Subroutine0

        RSEG BANKED_CODE:CODE:NOROOT(0)
?Subroutine0:
        CFI Block cfiBlock8 Using cfiCommon0
        CFI NoFunction
        CFI CFA_SP SP+-5
        CFI DPL0 Frame(CFA_SP, 4)
        CFI DPH0 Frame(CFA_SP, 5)
        POP     DPH
        CFI CFA_SP SP+-4
        CFI DPH0 SameValue
        POP     DPL
        CFI CFA_SP SP+-3
        CFI DPL0 SameValue
        LJMP    ?BRET
        CFI EndBlock cfiBlock8
//  513 
//  514 /**************************************************************************************************
//  515  * @fn      HalKeyEnterSleep
//  516  *
//  517  * @brief  - Get called to enter sleep mode
//  518  *
//  519  * @param
//  520  *
//  521  * @return
//  522  **************************************************************************************************/

        RSEG BANKED_CODE:CODE:NOROOT(0)
//  523 void HalKeyEnterSleep ( void )
HalKeyEnterSleep:
        CFI Block cfiBlock9 Using cfiCommon0
        CFI Function HalKeyEnterSleep
        CODE
//  524 {
        ; Saved register size: 0
        ; Auto size: 0
//  525 }
        LJMP    ?BRET
        CFI EndBlock cfiBlock9
//  526 
//  527 /**************************************************************************************************
//  528  * @fn      HalKeyExitSleep
//  529  *
//  530  * @brief   - Get called when sleep is over
//  531  *
//  532  * @param
//  533  *
//  534  * @return  - return saved keys
//  535  **************************************************************************************************/

        RSEG BANKED_CODE:CODE:NOROOT(0)
//  536 uint8 HalKeyExitSleep ( void )
HalKeyExitSleep:
        CFI Block cfiBlock10 Using cfiCommon0
        CFI Function HalKeyExitSleep
        CODE
//  537 {
        FUNCALL HalKeyExitSleep, HalKeyRead
        LOCFRAME ISTACK, 2, STACK
        LOCFRAME PSTACK, 0, STACK
        LOCFRAME XSTACK, 0, STACK
        LOCFRAME IOVERLAY, 0, STATIC
        LOCFRAME DOVERLAY, 0, STATIC
        ARGFRAME ISTACK, 2, STACK
        ARGFRAME PSTACK, 0, STACK
        ARGFRAME XSTACK, 0, STACK
        ARGFRAME IOVERLAY, 0, STATIC
        ARGFRAME DOVERLAY, 0, STATIC
        PUSH    DPL
        CFI DPL0 Frame(CFA_SP, 4)
        CFI CFA_SP SP+-4
        PUSH    DPH
        CFI DPH0 Frame(CFA_SP, 5)
        CFI CFA_SP SP+-5
        ; Saved register size: 2
        ; Auto size: 0
//  538   /* Wake up and read keys */
//  539   return ( HalKeyRead () );
        ; Setup parameters for call to function HalKeyRead
        LCALL   ??HalKeyRead?relay
        SJMP    ?Subroutine0
        CFI EndBlock cfiBlock10
//  540 }
//  541 
//  542 /***************************************************************************************************
//  543  *                                    INTERRUPT SERVICE ROUTINE
//  544  ***************************************************************************************************/
//  545 
//  546 /**************************************************************************************************
//  547  * @fn      halKeyPort0Isr
//  548  *
//  549  * @brief   Port0 ISR
//  550  *
//  551  * @param
//  552  *
//  553  * @return
//  554  **************************************************************************************************/

        RSEG NEAR_CODE:CODE:NOROOT(0)
//  555 HAL_ISR_FUNCTION( halKeyPort0Isr, P0INT_VECTOR )
halKeyPort0Isr:
        CFI Block cfiBlock11 Using cfiCommon1
        CFI Function halKeyPort0Isr
        CODE
//  556 {
        FUNCALL halKeyPort0Isr, halProcessKeyInterrupt
        LOCFRAME ISTACK, 0, STACK
        LOCFRAME PSTACK, 0, STACK
        LOCFRAME XSTACK, 14, STACK
        LOCFRAME IOVERLAY, 0, STATIC
        LOCFRAME DOVERLAY, 0, STATIC
        ARGFRAME ISTACK, 0, STACK
        ARGFRAME PSTACK, 0, STACK
        ARGFRAME XSTACK, 14, STACK
        ARGFRAME IOVERLAY, 0, STATIC
        ARGFRAME DOVERLAY, 0, STATIC
        FUNCALL halKeyPort0Isr, halProcessKeyInterrupt
        LOCFRAME ISTACK, 0, STACK
        LOCFRAME PSTACK, 0, STACK
        LOCFRAME XSTACK, 14, STACK
        LOCFRAME IOVERLAY, 0, STATIC
        LOCFRAME DOVERLAY, 0, STATIC
        ARGFRAME ISTACK, 0, STACK
        ARGFRAME PSTACK, 0, STACK
        ARGFRAME XSTACK, 14, STACK
        ARGFRAME IOVERLAY, 0, STATIC
        ARGFRAME DOVERLAY, 0, STATIC
        PUSH    A
        CFI A Frame(CFA_SP, 3)
        CFI CFA_SP SP+-3
        MOV     A,#-0xe
        LCALL   ?INTERRUPT_ENTER_XSP
        CFI B load(1, XDATA, add(CFA_XSP16, literal(-1)))
        CFI VB load(1, XDATA, add(CFA_XSP16, literal(-2)))
        CFI PSW load(1, XDATA, add(CFA_XSP16, literal(-3)))
        CFI DPL0 load(1, XDATA, add(CFA_XSP16, literal(-4)))
        CFI DPH0 load(1, XDATA, add(CFA_XSP16, literal(-5)))
        CFI R7 load(1, XDATA, add(CFA_XSP16, literal(-6)))
        CFI R6 load(1, XDATA, add(CFA_XSP16, literal(-7)))
        CFI R5 load(1, XDATA, add(CFA_XSP16, literal(-8)))
        CFI R4 load(1, XDATA, add(CFA_XSP16, literal(-9)))
        CFI V0 load(1, XDATA, add(CFA_XSP16, literal(-10)))
        CFI R3 load(1, XDATA, add(CFA_XSP16, literal(-11)))
        CFI R2 load(1, XDATA, add(CFA_XSP16, literal(-12)))
        CFI R1 load(1, XDATA, add(CFA_XSP16, literal(-13)))
        CFI R0 load(1, XDATA, add(CFA_XSP16, literal(-14)))
        CFI CFA_XSP16 add(XSP16, 14)
        ; Saved register size: 14
        ; Auto size: 0
//  557   HAL_ENTER_ISR();
        MOV     C,0xa8.7
        CLR     A
        RLC     A
        MOV     R6,A
        SETB    0xa8.7
//  558 
//  559   if (HAL_KEY_PXIFG & HAL_KEY_SW_4_BIT)
        MOV     A,0x89
        MOV     C,0xE0 /* A   */.4
        JNC     ??halKeyPort0Isr_0
//  560   {
//  561     halProcessKeyInterrupt();
        ; Setup parameters for call to function halProcessKeyInterrupt
        LCALL   ??halProcessKeyInterrupt?relay
//  562   }
//  563 
//  564   if (HAL_KEY_PXIFG & HAL_KEY_SW_5_BIT)
??halKeyPort0Isr_0:
        MOV     A,0x89
        MOV     C,0xE0 /* A   */.5
        JNC     ??halKeyPort0Isr_1
//  565   {
//  566     halProcessKeyInterrupt();
        ; Setup parameters for call to function halProcessKeyInterrupt
        LCALL   ??halProcessKeyInterrupt?relay
//  567   }
//  568 
//  569   /*
//  570     Clear the CPU interrupt flag for Port_0
//  571     PxIFG has to be cleared before PxIF
//  572   */
//  573   
//  574   HAL_KEY_PXIFG = 0;
??halKeyPort0Isr_1:
        MOV     0x89,#0x0
//  575   HAL_KEY_CPU_PORT_0_IF = 0;
        CLR     0xc0.5
//  576   
//  577   CLEAR_SLEEP_MODE();
//  578   HAL_EXIT_ISR();
        MOV     A,R6
        MOV     C,0xE0 /* A   */.0
        MOV     0xa8.7,C
//  579 }
        MOV     R7,#0x1
        LJMP    ?INTERRUPT_LEAVE_XSP
        CFI EndBlock cfiBlock11
        REQUIRE _A_IEN0
        REQUIRE P0IFG
        REQUIRE _A_IRCON

        COMMON INTVEC:CODE:ROOT(0)
        ORG 107
`??halKeyPort0Isr??INTVEC 107`:
        LJMP       (halKeyPort0Isr)

        RSEG BANK_RELAYS:CODE:REORDER:NOROOT(0)
??HalKeyInit?relay:
        LCALL   ?BDISPATCH
        DATA
        DC24    HalKeyInit

        RSEG BANK_RELAYS:CODE:REORDER:NOROOT(0)
??HalKeyConfig?relay:
        LCALL   ?BDISPATCH
        DATA
        DC24    HalKeyConfig

        RSEG BANK_RELAYS:CODE:REORDER:NOROOT(0)
??HalKeyRead?relay:
        LCALL   ?BDISPATCH
        DATA
        DC24    HalKeyRead

        RSEG BANK_RELAYS:CODE:REORDER:NOROOT(0)
??HalKeyPoll?relay:
        LCALL   ?BDISPATCH
        DATA
        DC24    HalKeyPoll

        RSEG BANK_RELAYS:CODE:REORDER:NOROOT(0)
??halProcessKeyInterrupt?relay:
        LCALL   ?BDISPATCH
        DATA
        DC24    halProcessKeyInterrupt

        RSEG BANK_RELAYS:CODE:REORDER:NOROOT(0)
??HalKeyEnterSleep?relay:
        LCALL   ?BDISPATCH
        DATA
        DC24    HalKeyEnterSleep

        RSEG BANK_RELAYS:CODE:REORDER:NOROOT(0)
??HalKeyExitSleep?relay:
        LCALL   ?BDISPATCH
        DATA
        DC24    HalKeyExitSleep

        END
//  580 
//  581 
//  582 /**************************************************************************************************
//  583  * @fn      halKeyPort2Isr
//  584  *
//  585  * @brief   Port2 ISR
//  586  *
//  587  * @param
//  588  *
//  589  * @return
//  590  **************************************************************************************************/
//  591 //HAL_ISR_FUNCTION( halKeyPort2Isr, P2INT_VECTOR )
//  592 //{
//  593 //  HAL_ENTER_ISR();
//  594 //  
//  595 //  if (HAL_KEY_JOY_MOVE_PXIFG & HAL_KEY_JOY_MOVE_BIT)
//  596 //  {
//  597 //    halProcessKeyInterrupt();
//  598 //  }
//  599 //
//  600 //  /*
//  601 //    Clear the CPU interrupt flag for Port_2
//  602 //    PxIFG has to be cleared before PxIF
//  603 //    Notes: P2_1 and P2_2 are debug lines.
//  604 //  */
//  605 //  HAL_KEY_JOY_MOVE_PXIFG = 0;
//  606 //  HAL_KEY_CPU_PORT_2_IF = 0;
//  607 //
//  608 //  CLEAR_SLEEP_MODE();
//  609 //  HAL_EXIT_ISR();
//  610 //}
//  611 
//  612 #else
//  613 
//  614 
//  615 void HalKeyInit(void){}
//  616 void HalKeyConfig(bool interruptEnable, halKeyCBack_t cback){}
//  617 uint8 HalKeyRead(void){ return 0;}
//  618 void HalKeyPoll(void){}
//  619 
//  620 #endif /* HAL_KEY */
//  621 
//  622 
//  623 
//  624 
//  625 
//  626 /**************************************************************************************************
//  627 **************************************************************************************************/
//  628 
//  629 
//  630 
// 
// 278 bytes in segment BANKED_CODE
//  42 bytes in segment BANK_RELAYS
//   3 bytes in segment INTVEC
//  47 bytes in segment NEAR_CODE
//  11 bytes in segment SFR_AN
//   5 bytes in segment XDATA_Z
// 
// 367 bytes of CODE  memory (+  3 bytes shared)
//   0 bytes of DATA  memory (+ 11 bytes shared)
//   5 bytes of XDATA memory
//
//Errors: none
//Warnings: none
