///////////////////////////////////////////////////////////////////////////////
//                                                                            /
// IAR C/C++ Compiler V8.10.3.10338/W32 for 8051        04/Jul/2018  22:34:44 /
// Copyright 2004-2011 IAR Systems AB.                                        /
//                                                                            /
//    Core               =  plain                                             /
//    Code model         =  banked                                            /
//    Data model         =  large                                             /
//    Calling convention =  xdata reentrant                                   /
//    Constant location  =  data_rom                                          /
//    Dptr setup         =  1,16                                              /
//    Source file        =  C:\ZigBee\SmartHomeApp\Projects\zstack\Samples\Sm /
//                          artHomeApp\Source\SmartHomeApp.c                  /
//    Command line       =  -f C:\ZigBee\SmartHomeApp\Projects\zstack\Samples /
//                          \SmartHomeApp\CC2530DB\..\..\..\Tools\CC2530DB\f8 /
//                          wCoord.cfg (-DCPU32MHZ -DROOT=__near_func         /
//                          -DMAC_CFG_APP_PENDING_QUEUE=TRUE                  /
//                          -DMAC_CFG_TX_DATA_MAX=5 -DMAC_CFG_TX_MAX=8        /
//                          -DMAC_CFG_RX_MAX=5 -DZDO_COORDINATOR -DRTR_NWK)   /
//                          -f C:\ZigBee\SmartHomeApp\Projects\zstack\Samples /
//                          \SmartHomeApp\CC2530DB\..\..\..\Tools\CC2530DB\f8 /
//                          wConfig.cfg (-DZIGBEEPRO -DSECURE=0               /
//                          -DZG_SECURE_DYNAMIC=0 -DREFLECTOR                 /
//                          -DDEFAULT_CHANLIST=0x00002000                     /
//                          -DZDAPP_CONFIG_PAN_ID=0xF227                      /
//                          -DNWK_START_DELAY=100 -DEXTENDED_JOINING_RANDOM_M /
//                          ASK=0x007F -DBEACON_REQUEST_DELAY=100             /
//                          -DBEACON_REQ_DELAY_MASK=0x00FF                    /
//                          -DLINK_STATUS_JITTER_MASK=0x007F                  /
//                          -DROUTE_EXPIRY_TIME=30 -DAPSC_ACK_WAIT_DURATION_P /
//                          OLLED=3000 -DNWK_INDIRECT_MSG_TIMEOUT=7           /
//                          -DMAX_RREQ_ENTRIES=8 -DAPSC_MAX_FRAME_RETRIES=3   /
//                          -DNWK_MAX_DATA_RETRIES=2                          /
//                          -DMAX_POLL_FAILURE_RETRIES=2 -DMAX_BCAST=9        /
//                          -DAPS_MAX_GROUPS=16 -DMAX_RTG_ENTRIES=40          /
//                          -DNWK_MAX_BINDING_ENTRIES=4                       /
//                          -DMAX_BINDING_CLUSTER_IDS=4                       /
//                          "-DDEFAULT_KEY={0x01, 0x03, 0x05, 0x07, 0x09,     /
//                          0x0B, 0x0D, 0x0F, 0x00, 0x02, 0x04, 0x06, 0x08,   /
//                          0x0A, 0x0C, 0x0D}" -DMAC_MAX_FRAME_SIZE=116       /
//                          -DZDNWKMGR_MIN_TRANSMISSIONS=20 "-DCONST=const    /
//                          __code" -DGENERIC=__generic                       /
//                          -DRFD_RCVC_ALWAYS_ON=FALSE -DPOLL_RATE=1000       /
//                          -DQUEUED_POLL_RATE=100 -DRESPONSE_POLL_RATE=100)  /
//                          -DREJOIN_POLL_RATE=440 C:\ZigBee\SmartHomeApp\Pro /
//                          jects\zstack\Samples\SmartHomeApp\Source\SmartHom /
//                          eApp.c -D ZTOOL_P1 -D MT_TASK -D MT_SYS_FUNC -D   /
//                          MT_ZDO_FUNC -D xLCD_SUPPORTED=DEBUG -lC           /
//                          C:\ZigBee\SmartHomeApp\Projects\zstack\Samples\Sm /
//                          artHomeApp\CC2530DB\CoordinatorEB\List\ -lA       /
//                          C:\ZigBee\SmartHomeApp\Projects\zstack\Samples\Sm /
//                          artHomeApp\CC2530DB\CoordinatorEB\List\           /
//                          --diag_suppress Pe001,Pa010 -o                    /
//                          C:\ZigBee\SmartHomeApp\Projects\zstack\Samples\Sm /
//                          artHomeApp\CC2530DB\CoordinatorEB\Obj\ -e         /
//                          --no_code_motion --debug --core=plain             /
//                          --dptr=16,1 --data_model=large                    /
//                          --code_model=banked --calling_convention=xdata_re /
//                          entrant --place_constants=data_rom                /
//                          --nr_virtual_regs 16 -I                           /
//                          C:\ZigBee\SmartHomeApp\Projects\zstack\Samples\Sm /
//                          artHomeApp\CC2530DB\ -I                           /
//                          C:\ZigBee\SmartHomeApp\Projects\zstack\Samples\Sm /
//                          artHomeApp\CC2530DB\..\Source\ -I                 /
//                          C:\ZigBee\SmartHomeApp\Projects\zstack\Samples\Sm /
//                          artHomeApp\CC2530DB\..\..\..\ZMain\TI2530DB\ -I   /
//                          C:\ZigBee\SmartHomeApp\Projects\zstack\Samples\Sm /
//                          artHomeApp\CC2530DB\..\..\..\..\..\Components\hal /
//                          \include\ -I C:\ZigBee\SmartHomeApp\Projects\zsta /
//                          ck\Samples\SmartHomeApp\CC2530DB\..\..\..\..\..\C /
//                          omponents\hal\target\CC2530EB\ -I                 /
//                          C:\ZigBee\SmartHomeApp\Projects\zstack\Samples\Sm /
//                          artHomeApp\CC2530DB\..\..\..\..\..\Components\mac /
//                          \include\ -I C:\ZigBee\SmartHomeApp\Projects\zsta /
//                          ck\Samples\SmartHomeApp\CC2530DB\..\..\..\..\..\C /
//                          omponents\mac\high_level\ -I                      /
//                          C:\ZigBee\SmartHomeApp\Projects\zstack\Samples\Sm /
//                          artHomeApp\CC2530DB\..\..\..\..\..\Components\mac /
//                          \low_level\srf04\ -I C:\ZigBee\SmartHomeApp\Proje /
//                          cts\zstack\Samples\SmartHomeApp\CC2530DB\..\..\.. /
//                          \..\..\Components\mac\low_level\srf04\single_chip /
//                          \ -I C:\ZigBee\SmartHomeApp\Projects\zstack\Sampl /
//                          es\SmartHomeApp\CC2530DB\..\..\..\..\..\Component /
//                          s\mt\ -I C:\ZigBee\SmartHomeApp\Projects\zstack\S /
//                          amples\SmartHomeApp\CC2530DB\..\..\..\..\..\Compo /
//                          nents\osal\include\ -I C:\ZigBee\SmartHomeApp\Pro /
//                          jects\zstack\Samples\SmartHomeApp\CC2530DB\..\..\ /
//                          ..\..\..\Components\services\saddr\ -I            /
//                          C:\ZigBee\SmartHomeApp\Projects\zstack\Samples\Sm /
//                          artHomeApp\CC2530DB\..\..\..\..\..\Components\ser /
//                          vices\sdata\ -I C:\ZigBee\SmartHomeApp\Projects\z /
//                          stack\Samples\SmartHomeApp\CC2530DB\..\..\..\..\. /
//                          .\Components\stack\af\ -I                         /
//                          C:\ZigBee\SmartHomeApp\Projects\zstack\Samples\Sm /
//                          artHomeApp\CC2530DB\..\..\..\..\..\Components\sta /
//                          ck\nwk\ -I C:\ZigBee\SmartHomeApp\Projects\zstack /
//                          \Samples\SmartHomeApp\CC2530DB\..\..\..\..\..\Com /
//                          ponents\stack\sapi\ -I C:\ZigBee\SmartHomeApp\Pro /
//                          jects\zstack\Samples\SmartHomeApp\CC2530DB\..\..\ /
//                          ..\..\..\Components\stack\sec\ -I                 /
//                          C:\ZigBee\SmartHomeApp\Projects\zstack\Samples\Sm /
//                          artHomeApp\CC2530DB\..\..\..\..\..\Components\sta /
//                          ck\sys\ -I C:\ZigBee\SmartHomeApp\Projects\zstack /
//                          \Samples\SmartHomeApp\CC2530DB\..\..\..\..\..\Com /
//                          ponents\stack\zdo\ -I C:\ZigBee\SmartHomeApp\Proj /
//                          ects\zstack\Samples\SmartHomeApp\CC2530DB\..\..\. /
//                          .\..\..\Components\zmac\ -I                       /
//                          C:\ZigBee\SmartHomeApp\Projects\zstack\Samples\Sm /
//                          artHomeApp\CC2530DB\..\..\..\..\..\Components\zma /
//                          c\f8w\ -Ohz --require_prototypes                  /
//    List file          =  C:\ZigBee\SmartHomeApp\Projects\zstack\Samples\Sm /
//                          artHomeApp\CC2530DB\CoordinatorEB\List\SmartHomeA /
//                          pp.s51                                            /
//                                                                            /
//                                                                            /
///////////////////////////////////////////////////////////////////////////////

        NAME SmartHomeApp

        RTMODEL "__SystemLibrary", "CLib"
        RTMODEL "__calling_convention", "xdata_reentrant"
        RTMODEL "__code_model", "banked"
        RTMODEL "__core", "plain"
        RTMODEL "__data_model", "large"
        RTMODEL "__dptr_size", "16"
        RTMODEL "__extended_stack", "disabled"
        RTMODEL "__location_for_constants", "data"
        RTMODEL "__number_of_dptrs", "1"
        RTMODEL "__rt_version", "1"

        RSEG DOVERLAY:DATA:NOROOT(0)
        RSEG IOVERLAY:IDATA:NOROOT(0)
        RSEG ISTACK:IDATA:NOROOT(0)
        RSEG PSTACK:XDATA:NOROOT(0)
        RSEG XSTACK:XDATA:NOROOT(0)

        EXTERN ?ALLOC_XSTACK8
        EXTERN ?BANKED_ENTER_XDATA
        EXTERN ?BANKED_LEAVE_XDATA
        EXTERN ?BDISPATCH
        EXTERN ?CALL_IND
        EXTERN ?DEALLOC_XSTACK8
        EXTERN ?PUSH_XSTACK8_X_TWO
        EXTERN ?PUSH_XSTACK_I_ONE
        EXTERN ?PUSH_XSTACK_I_TWO
        EXTERN ?US_SWITCH_SPARSE
        EXTERN ?V0
        EXTERN ?XSP
        EXTERN ?XSTACK_DISP0_8
        EXTERN __INIT_XDATA_Z

        FUNCTION ??SmartHomeApp_CallBack?relay,0203H
        PUBLIC ??SmartHomeApp_Init?relay
        FUNCTION ??SmartHomeApp_Init?relay,0203H
        FUNCTION ??SmartHomeApp_MessageMSGCB?relay,0203H
        PUBLIC ??SmartHomeApp_ProcessEvent?relay
        FUNCTION ??SmartHomeApp_ProcessEvent?relay,0203H
        PUBLIC ??SmartHomeApp_ProcessNameAddrMapResp?relay
        FUNCTION ??SmartHomeApp_ProcessNameAddrMapResp?relay,0203H
        FUNCTION ??SmartHomeApp_ProcessReportNames?relay,0203H
        FUNCTION ??SmartHomeApp_SendNameAddrResp?relay,0203H
        PUBLIC ??SmartHome_SendCmd?relay
        FUNCTION ??SmartHome_SendCmd?relay,0203H
        FUNCTION ??processUartCB?relay,0203H
        PUBLIC Processor_HandleKeys
        PUBLIC Processor_HandleMsg
        PUBLIC Processor_Init
        PUBLIC Processor_Update
        PUBLIC RxBuf
        FUNCTION SmartHomeApp_CallBack,021603H
        ARGFRAME XSTACK, 0, STACK
        LOCFRAME XSTACK, 9, STACK
        PUBLIC SmartHomeApp_ClusterList
        PUBLIC SmartHomeApp_DstAddr
        PUBLIC SmartHomeApp_Init
        FUNCTION SmartHomeApp_Init,021203H
        ARGFRAME XSTACK, 0, STACK
        LOCFRAME XSTACK, 41, STACK
        FUNCTION SmartHomeApp_MessageMSGCB,021203H
        ARGFRAME XSTACK, 14, STACK
        ARGFRAME IOVERLAY, 0, STATIC
        ARGFRAME DOVERLAY, 0, STATIC
        LOCFRAME XSTACK, 14, STACK
        PUBLIC SmartHomeApp_NwkState
        PUBLIC SmartHomeApp_ProcessEvent
        FUNCTION SmartHomeApp_ProcessEvent,0a1203H
        ARGFRAME XSTACK, 0, STACK
        LOCFRAME XSTACK, 18, STACK
        PUBLIC SmartHomeApp_ProcessNameAddrMapResp
        FUNCTION SmartHomeApp_ProcessNameAddrMapResp,021203H
        ARGFRAME XSTACK, 12, STACK
        ARGFRAME IOVERLAY, 0, STATIC
        ARGFRAME DOVERLAY, 0, STATIC
        LOCFRAME XSTACK, 14, STACK
        FUNCTION SmartHomeApp_ProcessReportNames,021203H
        ARGFRAME XSTACK, 12, STACK
        ARGFRAME IOVERLAY, 0, STATIC
        ARGFRAME DOVERLAY, 0, STATIC
        LOCFRAME XSTACK, 71, STACK
        FUNCTION SmartHomeApp_SendNameAddrResp,021203H
        ARGFRAME XSTACK, 12, STACK
        ARGFRAME IOVERLAY, 0, STATIC
        ARGFRAME DOVERLAY, 0, STATIC
        LOCFRAME XSTACK, 85, STACK
        PUBLIC SmartHomeApp_SimpleDesc
        PUBLIC SmartHomeApp_TaskID
        PUBLIC SmartHomeApp_TransID
        PUBLIC SmartHomeApp_epDesc
        PUBLIC SmartHome_SendCmd
        FUNCTION SmartHome_SendCmd,021203H
        ARGFRAME XSTACK, 12, STACK
        ARGFRAME IOVERLAY, 0, STATIC
        ARGFRAME DOVERLAY, 0, STATIC
        LOCFRAME XSTACK, 21, STACK
        PUBWEAK WDCTL
        PUBWEAK _A_IEN0
        FUNCTION processUartCB,021203H
        ARGFRAME XSTACK, 9, STACK
        ARGFRAME IOVERLAY, 0, STATIC
        ARGFRAME DOVERLAY, 0, STATIC
        LOCFRAME XSTACK, 14, STACK
        
        CFI Names cfiNames0
        CFI StackFrame CFA_SP SP IDATA
        CFI StackFrame CFA_PSP16 PSP16 XDATA
        CFI StackFrame CFA_XSP16 XSP16 XDATA
        CFI StaticOverlayFrame CFA_IOVERLAY IOVERLAY
        CFI StaticOverlayFrame CFA_DOVERLAY DOVERLAY
        CFI Resource `PSW.CY`:1, `B.BR0`:1, `B.BR1`:1, `B.BR2`:1, `B.BR3`:1
        CFI Resource `B.BR4`:1, `B.BR5`:1, `B.BR6`:1, `B.BR7`:1, `VB.BR8`:1
        CFI Resource `VB.BR9`:1, `VB.BR10`:1, `VB.BR11`:1, `VB.BR12`:1
        CFI Resource `VB.BR13`:1, `VB.BR14`:1, `VB.BR15`:1, VB:8, B:8, A:8
        CFI Resource PSW:8, DPL0:8, DPH0:8, R0:8, R1:8, R2:8, R3:8, R4:8, R5:8
        CFI Resource R6:8, R7:8, V0:8, V1:8, V2:8, V3:8, V4:8, V5:8, V6:8, V7:8
        CFI Resource V8:8, V9:8, V10:8, V11:8, V12:8, V13:8, V14:8, V15:8, SP:8
        CFI Resource PSPH:8, PSPL:8, PSP16:16, XSPH:8, XSPL:8, XSP16:16
        CFI VirtualResource ?RET:24
        CFI Resource ?BRET_EXT:8
        CFI VirtualResource ?RET_HIGH:8, ?RET_LOW:8
        CFI ResourceParts PSP16 PSPH, PSPL
        CFI ResourceParts XSP16 XSPH, XSPL
        CFI ResourceParts ?RET ?BRET_EXT, ?RET_HIGH, ?RET_LOW
        CFI EndNames cfiNames0
        
        CFI Common cfiCommon0 Using cfiNames0
        CFI CodeAlign 1
        CFI DataAlign -1
        CFI ReturnAddress ?RET CODE
        CFI CFA_DOVERLAY Used
        CFI CFA_IOVERLAY Used
        CFI CFA_SP SP+-3
        CFI CFA_PSP16 PSP16+0
        CFI CFA_XSP16 XSP16+0
        CFI `PSW.CY` SameValue
        CFI `B.BR0` SameValue
        CFI `B.BR1` SameValue
        CFI `B.BR2` SameValue
        CFI `B.BR3` SameValue
        CFI `B.BR4` SameValue
        CFI `B.BR5` SameValue
        CFI `B.BR6` SameValue
        CFI `B.BR7` SameValue
        CFI `VB.BR8` SameValue
        CFI `VB.BR9` SameValue
        CFI `VB.BR10` SameValue
        CFI `VB.BR11` SameValue
        CFI `VB.BR12` SameValue
        CFI `VB.BR13` SameValue
        CFI `VB.BR14` SameValue
        CFI `VB.BR15` SameValue
        CFI VB SameValue
        CFI B Undefined
        CFI A Undefined
        CFI PSW SameValue
        CFI DPL0 SameValue
        CFI DPH0 SameValue
        CFI R0 Undefined
        CFI R1 Undefined
        CFI R2 Undefined
        CFI R3 Undefined
        CFI R4 Undefined
        CFI R5 Undefined
        CFI R6 SameValue
        CFI R7 SameValue
        CFI V0 SameValue
        CFI V1 SameValue
        CFI V2 SameValue
        CFI V3 SameValue
        CFI V4 SameValue
        CFI V5 SameValue
        CFI V6 SameValue
        CFI V7 SameValue
        CFI V8 SameValue
        CFI V9 SameValue
        CFI V10 SameValue
        CFI V11 SameValue
        CFI V12 SameValue
        CFI V13 SameValue
        CFI V14 SameValue
        CFI V15 SameValue
        CFI PSPH Undefined
        CFI PSPL Undefined
        CFI XSPH Undefined
        CFI XSPL Undefined
        CFI ?RET Concat
        CFI ?BRET_EXT Frame(CFA_SP, 3)
        CFI ?RET_HIGH Frame(CFA_SP, 2)
        CFI ?RET_LOW Frame(CFA_SP, 1)
        CFI EndCommon cfiCommon0
        
        
        CFI Common cfiCommon1 Using cfiNames0
        CFI CodeAlign 1
        CFI DataAlign -1
        CFI ReturnAddress ?RET CODE
        CFI CFA_DOVERLAY Used
        CFI CFA_IOVERLAY Used
        CFI CFA_SP SP+-2
        CFI CFA_PSP16 PSP16+0
        CFI CFA_XSP16 XSP16+0
        CFI `PSW.CY` SameValue
        CFI `B.BR0` SameValue
        CFI `B.BR1` SameValue
        CFI `B.BR2` SameValue
        CFI `B.BR3` SameValue
        CFI `B.BR4` SameValue
        CFI `B.BR5` SameValue
        CFI `B.BR6` SameValue
        CFI `B.BR7` SameValue
        CFI `VB.BR8` SameValue
        CFI `VB.BR9` SameValue
        CFI `VB.BR10` SameValue
        CFI `VB.BR11` SameValue
        CFI `VB.BR12` SameValue
        CFI `VB.BR13` SameValue
        CFI `VB.BR14` SameValue
        CFI `VB.BR15` SameValue
        CFI VB SameValue
        CFI B SameValue
        CFI A SameValue
        CFI PSW SameValue
        CFI DPL0 SameValue
        CFI DPH0 SameValue
        CFI R0 SameValue
        CFI R1 SameValue
        CFI R2 SameValue
        CFI R3 SameValue
        CFI R4 SameValue
        CFI R5 SameValue
        CFI R6 SameValue
        CFI R7 SameValue
        CFI V0 SameValue
        CFI V1 SameValue
        CFI V2 SameValue
        CFI V3 SameValue
        CFI V4 SameValue
        CFI V5 SameValue
        CFI V6 SameValue
        CFI V7 SameValue
        CFI V8 SameValue
        CFI V9 SameValue
        CFI V10 SameValue
        CFI V11 SameValue
        CFI V12 SameValue
        CFI V13 SameValue
        CFI V14 SameValue
        CFI V15 SameValue
        CFI PSPH Undefined
        CFI PSPL Undefined
        CFI XSPH Undefined
        CFI XSPL Undefined
        CFI ?RET Concat
        CFI ?BRET_EXT SameValue
        CFI ?RET_HIGH Frame(CFA_SP, 2)
        CFI ?RET_LOW Frame(CFA_SP, 1)
        CFI EndCommon cfiCommon1
        
HalUARTOpen         SYMBOL "HalUARTOpen"
Util_ReadName       SYMBOL "Util_ReadName"
printf              SYMBOL "printf"
Util_StrEqual       SYMBOL "Util_StrEqual"
afRegister          SYMBOL "afRegister"
RegisterForKeys     SYMBOL "RegisterForKeys"
ZDO_RegisterForZDOMsg SYMBOL "ZDO_RegisterForZDOMsg"
NameAddrCache_getAddrFromCmd SYMBOL "NameAddrCache_getAddrFromCmd"
osal_strlen         SYMBOL "osal_strlen"
AF_DataRequest      SYMBOL "AF_DataRequest"
Util_StartWith      SYMBOL "Util_StartWith"
Util_WriteName      SYMBOL "Util_WriteName"
HalUARTRead         SYMBOL "HalUARTRead"
osal_msg_receive    SYMBOL "osal_msg_receive"
NLME_GetShortAddr   SYMBOL "NLME_GetShortAddr"
NLME_GetCoordShortAddr SYMBOL "NLME_GetCoordShortAddr"
osal_start_timerEx  SYMBOL "osal_start_timerEx"
osal_msg_deallocate SYMBOL "osal_msg_deallocate"
ZDO_ParseEPListRsp  SYMBOL "ZDO_ParseEPListRsp"
HalLedSet           SYMBOL "HalLedSet"
osal_mem_free       SYMBOL "osal_mem_free"
NameAddrCache_delete SYMBOL "NameAddrCache_delete"
sprintf             SYMBOL "sprintf"
Util_Str2Uint16     SYMBOL "Util_Str2Uint16"
NameAddrCache_put   SYMBOL "NameAddrCache_put"
Util_GetNameFromCmd SYMBOL "Util_GetNameFromCmd"
??AF_DataRequest?relay SYMBOL "?relay", AF_DataRequest
`?<Name DefaultProcessor_Han 27>` SYMBOL "DefaultProcessor_HandleKeys"
??DefaultProcessor_HandleKeys?relay SYMBOL "?relay", `?<Name DefaultProcessor_Han 27>`
`?<Name DefaultProcessor_Han 29>` SYMBOL "DefaultProcessor_HandleMsg"
??DefaultProcessor_HandleMsg?relay SYMBOL "?relay", `?<Name DefaultProcessor_Han 29>`
`?<Name DefaultProcessor_Ini 31>` SYMBOL "DefaultProcessor_Init"
??DefaultProcessor_Init?relay SYMBOL "?relay", `?<Name DefaultProcessor_Ini 31>`
`?<Name DefaultProcessor_Upd 33>` SYMBOL "DefaultProcessor_Update"
??DefaultProcessor_Update?relay SYMBOL "?relay", `?<Name DefaultProcessor_Upd 33>`
`?<Name DoorLight_HandleKeys 35>` SYMBOL "DoorLight_HandleKeys"
??DoorLight_HandleKeys?relay SYMBOL "?relay", `?<Name DoorLight_HandleKeys 35>`
`?<Name DoorLight_HandleMsg 37>` SYMBOL "DoorLight_HandleMsg"
??DoorLight_HandleMsg?relay SYMBOL "?relay", `?<Name DoorLight_HandleMsg 37>`
`?<Name DoorLight_Init 39>` SYMBOL "DoorLight_Init"
??DoorLight_Init?relay SYMBOL "?relay", `?<Name DoorLight_Init 39>`
`?<Name DoorLight_Update 41>` SYMBOL "DoorLight_Update"
??DoorLight_Update?relay SYMBOL "?relay", `?<Name DoorLight_Update 41>`
`?<Name DoorSensor_HandleKey 43>` SYMBOL "DoorSensor_HandleKeys"
??DoorSensor_HandleKeys?relay SYMBOL "?relay", `?<Name DoorSensor_HandleKey 43>`
`?<Name DoorSensor_HandleMsg 45>` SYMBOL "DoorSensor_HandleMsg"
??DoorSensor_HandleMsg?relay SYMBOL "?relay", `?<Name DoorSensor_HandleMsg 45>`
`?<Name DoorSensor_Init 47>` SYMBOL "DoorSensor_Init"
??DoorSensor_Init?relay SYMBOL "?relay", `?<Name DoorSensor_Init 47>`
`?<Name DoorSensor_Update 49>` SYMBOL "DoorSensor_Update"
??DoorSensor_Update?relay SYMBOL "?relay", `?<Name DoorSensor_Update 49>`
??HalLedSet?relay   SYMBOL "?relay", HalLedSet
??HalUARTOpen?relay SYMBOL "?relay", HalUARTOpen
??HalUARTRead?relay SYMBOL "?relay", HalUARTRead
??NLME_GetCoordShortAddr?relay SYMBOL "?relay", NLME_GetCoordShortAddr
??NLME_GetShortAddr?relay SYMBOL "?relay", NLME_GetShortAddr
??NameAddrCache_delete?relay SYMBOL "?relay", NameAddrCache_delete
??NameAddrCache_getAddrFromCmd?relay SYMBOL "?relay", NameAddrCache_getAddrFromCmd
??NameAddrCache_put?relay SYMBOL "?relay", NameAddrCache_put
??RegisterForKeys?relay SYMBOL "?relay", RegisterForKeys
??Util_GetNameFromCmd?relay SYMBOL "?relay", Util_GetNameFromCmd
??Util_ReadName?relay SYMBOL "?relay", Util_ReadName
??Util_StartWith?relay SYMBOL "?relay", Util_StartWith
??Util_Str2Uint16?relay SYMBOL "?relay", Util_Str2Uint16
??Util_StrEqual?relay SYMBOL "?relay", Util_StrEqual
??Util_WriteName?relay SYMBOL "?relay", Util_WriteName
??ZDO_ParseEPListRsp?relay SYMBOL "?relay", ZDO_ParseEPListRsp
??ZDO_RegisterForZDOMsg?relay SYMBOL "?relay", ZDO_RegisterForZDOMsg
??afRegister?relay  SYMBOL "?relay", afRegister
??osal_mem_free?relay SYMBOL "?relay", osal_mem_free
??osal_msg_deallocate?relay SYMBOL "?relay", osal_msg_deallocate
??osal_msg_receive?relay SYMBOL "?relay", osal_msg_receive
??osal_start_timerEx?relay SYMBOL "?relay", osal_start_timerEx
??osal_strlen?relay SYMBOL "?relay", osal_strlen
??printf?relay      SYMBOL "?relay", printf
??sprintf?relay     SYMBOL "?relay", sprintf
SmartHomeApp_Init   SYMBOL "SmartHomeApp_Init"
??SmartHomeApp_Init?relay SYMBOL "?relay", SmartHomeApp_Init
SmartHomeApp_ProcessEvent SYMBOL "SmartHomeApp_ProcessEvent"
??SmartHomeApp_ProcessEvent?relay SYMBOL "?relay", SmartHomeApp_ProcessEvent
SmartHomeApp_ProcessNameAddrMapResp SYMBOL "SmartHomeApp_ProcessNameAddrMapResp"
??SmartHomeApp_ProcessNameAddrMapResp?relay SYMBOL "?relay", SmartHomeApp_ProcessNameAddrMapResp
SmartHome_SendCmd   SYMBOL "SmartHome_SendCmd"
??SmartHome_SendCmd?relay SYMBOL "?relay", SmartHome_SendCmd

        EXTERN HalUARTOpen
        FUNCTION HalUARTOpen,0202H
        ARGFRAME ISTACK, 0, STACK
        ARGFRAME PSTACK, 0, STACK
        ARGFRAME XSTACK, 39, STACK
        ARGFRAME IOVERLAY, 0, STATIC
        ARGFRAME DOVERLAY, 0, STATIC
        EXTERN Util_ReadName
        FUNCTION Util_ReadName,0202H
        ARGFRAME ISTACK, 0, STACK
        ARGFRAME PSTACK, 0, STACK
        ARGFRAME XSTACK, 76, STACK
        ARGFRAME IOVERLAY, 0, STATIC
        ARGFRAME DOVERLAY, 0, STATIC
        EXTERN printf
        FUNCTION printf,0202H
        ARGFRAME ISTACK, 0, STACK
        ARGFRAME PSTACK, 0, STACK
        ARGFRAME XSTACK, 78, STACK
        ARGFRAME IOVERLAY, 0, STATIC
        ARGFRAME DOVERLAY, 0, STATIC
        EXTERN Util_StrEqual
        FUNCTION Util_StrEqual,0202H
        ARGFRAME ISTACK, 0, STACK
        ARGFRAME PSTACK, 0, STACK
        ARGFRAME XSTACK, 39, STACK
        ARGFRAME IOVERLAY, 0, STATIC
        ARGFRAME DOVERLAY, 0, STATIC
        EXTERN afRegister
        FUNCTION afRegister,0202H
        ARGFRAME ISTACK, 0, STACK
        ARGFRAME PSTACK, 0, STACK
        ARGFRAME XSTACK, 39, STACK
        ARGFRAME IOVERLAY, 0, STATIC
        ARGFRAME DOVERLAY, 0, STATIC
        EXTERN RegisterForKeys
        FUNCTION RegisterForKeys,0202H
        ARGFRAME ISTACK, 0, STACK
        ARGFRAME PSTACK, 0, STACK
        ARGFRAME XSTACK, 39, STACK
        ARGFRAME IOVERLAY, 0, STATIC
        ARGFRAME DOVERLAY, 0, STATIC
        EXTERN ZDO_RegisterForZDOMsg
        FUNCTION ZDO_RegisterForZDOMsg,0202H
        ARGFRAME ISTACK, 0, STACK
        ARGFRAME PSTACK, 0, STACK
        ARGFRAME XSTACK, 39, STACK
        ARGFRAME IOVERLAY, 0, STATIC
        ARGFRAME DOVERLAY, 0, STATIC
        EXTERN NameAddrCache_getAddrFromCmd
        FUNCTION NameAddrCache_getAddrFromCmd,0202H
        ARGFRAME ISTACK, 0, STACK
        ARGFRAME PSTACK, 0, STACK
        ARGFRAME XSTACK, 12, STACK
        ARGFRAME IOVERLAY, 0, STATIC
        ARGFRAME DOVERLAY, 0, STATIC
        EXTERN osal_strlen
        FUNCTION osal_strlen,0202H
        ARGFRAME ISTACK, 0, STACK
        ARGFRAME PSTACK, 0, STACK
        ARGFRAME XSTACK, 81, STACK
        ARGFRAME IOVERLAY, 0, STATIC
        ARGFRAME DOVERLAY, 0, STATIC
        EXTERN AF_DataRequest
        FUNCTION AF_DataRequest,0202H
        ARGFRAME ISTACK, 0, STACK
        ARGFRAME PSTACK, 0, STACK
        ARGFRAME XSTACK, 85, STACK
        ARGFRAME IOVERLAY, 0, STATIC
        ARGFRAME DOVERLAY, 0, STATIC
        EXTERN Util_StartWith
        FUNCTION Util_StartWith,0202H
        ARGFRAME ISTACK, 0, STACK
        ARGFRAME PSTACK, 0, STACK
        ARGFRAME XSTACK, 12, STACK
        ARGFRAME IOVERLAY, 0, STATIC
        ARGFRAME DOVERLAY, 0, STATIC
        EXTERN Util_WriteName
        FUNCTION Util_WriteName,0202H
        ARGFRAME ISTACK, 0, STACK
        ARGFRAME PSTACK, 0, STACK
        ARGFRAME XSTACK, 12, STACK
        ARGFRAME IOVERLAY, 0, STATIC
        ARGFRAME DOVERLAY, 0, STATIC
        EXTERN HalUARTRead
        FUNCTION HalUARTRead,0202H
        ARGFRAME ISTACK, 0, STACK
        ARGFRAME PSTACK, 0, STACK
        ARGFRAME XSTACK, 9, STACK
        ARGFRAME IOVERLAY, 0, STATIC
        ARGFRAME DOVERLAY, 0, STATIC
        EXTERN osal_msg_receive
        FUNCTION osal_msg_receive,0202H
        ARGFRAME ISTACK, 0, STACK
        ARGFRAME PSTACK, 0, STACK
        ARGFRAME XSTACK, 14, STACK
        ARGFRAME IOVERLAY, 0, STATIC
        ARGFRAME DOVERLAY, 0, STATIC
        EXTERN NLME_GetShortAddr
        FUNCTION NLME_GetShortAddr,0202H
        ARGFRAME ISTACK, 0, STACK
        ARGFRAME PSTACK, 0, STACK
        ARGFRAME XSTACK, 78, STACK
        ARGFRAME IOVERLAY, 0, STATIC
        ARGFRAME DOVERLAY, 0, STATIC
        EXTERN NLME_GetCoordShortAddr
        FUNCTION NLME_GetCoordShortAddr,0202H
        ARGFRAME ISTACK, 0, STACK
        ARGFRAME PSTACK, 0, STACK
        ARGFRAME XSTACK, 62, STACK
        ARGFRAME IOVERLAY, 0, STATIC
        ARGFRAME DOVERLAY, 0, STATIC
        EXTERN osal_start_timerEx
        FUNCTION osal_start_timerEx,0202H
        ARGFRAME ISTACK, 0, STACK
        ARGFRAME PSTACK, 0, STACK
        ARGFRAME XSTACK, 14, STACK
        ARGFRAME IOVERLAY, 0, STATIC
        ARGFRAME DOVERLAY, 0, STATIC
        EXTERN osal_msg_deallocate
        FUNCTION osal_msg_deallocate,0202H
        ARGFRAME ISTACK, 0, STACK
        ARGFRAME PSTACK, 0, STACK
        ARGFRAME XSTACK, 14, STACK
        ARGFRAME IOVERLAY, 0, STATIC
        ARGFRAME DOVERLAY, 0, STATIC
        EXTERN ZDO_ParseEPListRsp
        FUNCTION ZDO_ParseEPListRsp,0202H
        ARGFRAME ISTACK, 0, STACK
        ARGFRAME PSTACK, 0, STACK
        ARGFRAME XSTACK, 14, STACK
        ARGFRAME IOVERLAY, 0, STATIC
        ARGFRAME DOVERLAY, 0, STATIC
        EXTERN HalLedSet
        FUNCTION HalLedSet,0202H
        ARGFRAME ISTACK, 0, STACK
        ARGFRAME PSTACK, 0, STACK
        ARGFRAME XSTACK, 14, STACK
        ARGFRAME IOVERLAY, 0, STATIC
        ARGFRAME DOVERLAY, 0, STATIC
        EXTERN osal_mem_free
        FUNCTION osal_mem_free,0202H
        ARGFRAME ISTACK, 0, STACK
        ARGFRAME PSTACK, 0, STACK
        ARGFRAME XSTACK, 14, STACK
        ARGFRAME IOVERLAY, 0, STATIC
        ARGFRAME DOVERLAY, 0, STATIC
        EXTERN NameAddrCache_delete
        FUNCTION NameAddrCache_delete,0202H
        ARGFRAME ISTACK, 0, STACK
        ARGFRAME PSTACK, 0, STACK
        ARGFRAME XSTACK, 14, STACK
        ARGFRAME IOVERLAY, 0, STATIC
        ARGFRAME DOVERLAY, 0, STATIC
        EXTERN sprintf
        FUNCTION sprintf,0202H
        ARGFRAME ISTACK, 0, STACK
        ARGFRAME PSTACK, 0, STACK
        ARGFRAME XSTACK, 80, STACK
        ARGFRAME IOVERLAY, 0, STATIC
        ARGFRAME DOVERLAY, 0, STATIC
        EXTERN Util_Str2Uint16
        FUNCTION Util_Str2Uint16,0202H
        ARGFRAME ISTACK, 0, STACK
        ARGFRAME PSTACK, 0, STACK
        ARGFRAME XSTACK, 12, STACK
        ARGFRAME IOVERLAY, 0, STATIC
        ARGFRAME DOVERLAY, 0, STATIC
        EXTERN NameAddrCache_put
        FUNCTION NameAddrCache_put,0202H
        ARGFRAME ISTACK, 0, STACK
        ARGFRAME PSTACK, 0, STACK
        ARGFRAME XSTACK, 12, STACK
        ARGFRAME IOVERLAY, 0, STATIC
        ARGFRAME DOVERLAY, 0, STATIC
        EXTERN Util_GetNameFromCmd
        FUNCTION Util_GetNameFromCmd,0202H
        ARGFRAME ISTACK, 0, STACK
        ARGFRAME PSTACK, 0, STACK
        ARGFRAME XSTACK, 12, STACK
        ARGFRAME IOVERLAY, 0, STATIC
        ARGFRAME DOVERLAY, 0, STATIC
        EXTERN ??AF_DataRequest?relay
        FUNCTION ??AF_DataRequest?relay,00H
        EXTERN ??DefaultProcessor_HandleKeys?relay
        FUNCTION ??DefaultProcessor_HandleKeys?relay,00H
        EXTERN ??DefaultProcessor_HandleMsg?relay
        FUNCTION ??DefaultProcessor_HandleMsg?relay,00H
        EXTERN ??DefaultProcessor_Init?relay
        FUNCTION ??DefaultProcessor_Init?relay,00H
        EXTERN ??DefaultProcessor_Update?relay
        FUNCTION ??DefaultProcessor_Update?relay,00H
        EXTERN ??DoorLight_HandleKeys?relay
        FUNCTION ??DoorLight_HandleKeys?relay,00H
        EXTERN ??DoorLight_HandleMsg?relay
        FUNCTION ??DoorLight_HandleMsg?relay,00H
        EXTERN ??DoorLight_Init?relay
        FUNCTION ??DoorLight_Init?relay,00H
        EXTERN ??DoorLight_Update?relay
        FUNCTION ??DoorLight_Update?relay,00H
        EXTERN ??DoorSensor_HandleKeys?relay
        FUNCTION ??DoorSensor_HandleKeys?relay,00H
        EXTERN ??DoorSensor_HandleMsg?relay
        FUNCTION ??DoorSensor_HandleMsg?relay,00H
        EXTERN ??DoorSensor_Init?relay
        FUNCTION ??DoorSensor_Init?relay,00H
        EXTERN ??DoorSensor_Update?relay
        FUNCTION ??DoorSensor_Update?relay,00H
        EXTERN ??HalLedSet?relay
        FUNCTION ??HalLedSet?relay,00H
        EXTERN ??HalUARTOpen?relay
        FUNCTION ??HalUARTOpen?relay,00H
        EXTERN ??HalUARTRead?relay
        FUNCTION ??HalUARTRead?relay,00H
        EXTERN ??NLME_GetCoordShortAddr?relay
        FUNCTION ??NLME_GetCoordShortAddr?relay,00H
        EXTERN ??NLME_GetShortAddr?relay
        FUNCTION ??NLME_GetShortAddr?relay,00H
        EXTERN ??NameAddrCache_delete?relay
        FUNCTION ??NameAddrCache_delete?relay,00H
        EXTERN ??NameAddrCache_getAddrFromCmd?relay
        FUNCTION ??NameAddrCache_getAddrFromCmd?relay,00H
        EXTERN ??NameAddrCache_put?relay
        FUNCTION ??NameAddrCache_put?relay,00H
        EXTERN ??RegisterForKeys?relay
        FUNCTION ??RegisterForKeys?relay,00H
        EXTERN ??Util_GetNameFromCmd?relay
        FUNCTION ??Util_GetNameFromCmd?relay,00H
        EXTERN ??Util_ReadName?relay
        FUNCTION ??Util_ReadName?relay,00H
        EXTERN ??Util_StartWith?relay
        FUNCTION ??Util_StartWith?relay,00H
        EXTERN ??Util_Str2Uint16?relay
        FUNCTION ??Util_Str2Uint16?relay,00H
        EXTERN ??Util_StrEqual?relay
        FUNCTION ??Util_StrEqual?relay,00H
        EXTERN ??Util_WriteName?relay
        FUNCTION ??Util_WriteName?relay,00H
        EXTERN ??ZDO_ParseEPListRsp?relay
        FUNCTION ??ZDO_ParseEPListRsp?relay,00H
        EXTERN ??ZDO_RegisterForZDOMsg?relay
        FUNCTION ??ZDO_RegisterForZDOMsg?relay,00H
        EXTERN ??afRegister?relay
        FUNCTION ??afRegister?relay,00H
        EXTERN ??osal_mem_free?relay
        FUNCTION ??osal_mem_free?relay,00H
        EXTERN ??osal_msg_deallocate?relay
        FUNCTION ??osal_msg_deallocate?relay,00H
        EXTERN ??osal_msg_receive?relay
        FUNCTION ??osal_msg_receive?relay,00H
        EXTERN ??osal_start_timerEx?relay
        FUNCTION ??osal_start_timerEx?relay,00H
        EXTERN ??osal_strlen?relay
        FUNCTION ??osal_strlen?relay,00H
        EXTERN ??printf?relay
        FUNCTION ??printf?relay,00H
        EXTERN ??sprintf?relay
        FUNCTION ??sprintf?relay,00H

// C:\ZigBee\SmartHomeApp\Projects\zstack\Samples\SmartHomeApp\Source\SmartHomeApp.c
//    1 /******************************************************************************
//    2   Filename:       SmartHomeApp.c
//    3   Revised:        $Date: 2012-03-07 01:04:58 -0800 (Wed, 07 Mar 2012) $
//    4   Revision:       $Revision: 29656 $
//    5 
//    6   Description:    Generic Application (no Profile).
//    7 
//    8 
//    9   Copyright 2004-2012 Texas Instruments Incorporated. All rights reserved.
//   10 
//   11   IMPORTANT: Your use of this Software is limited to those specific rights
//   12   granted under the terms of a software license agreement between the user
//   13   who downloaded the software, his/her employer (which must be your employer)
//   14   and Texas Instruments Incorporated (the "License"). You may not use this
//   15   Software unless you agree to abide by the terms of the License. The License
//   16   limits your use, and you acknowledge, that the Software may not be modified,
//   17   copied or distributed unless embedded on a Texas Instruments microcontroller
//   18   or used solely and exclusively in conjunction with a Texas Instruments radio
//   19   frequency transceiver, which is integrated into your product. Other than for
//   20   the foregoing purpose, you may not use, reproduce, copy, prepare derivative
//   21   works of, modify, distribute, perform, display or sell this Software and/or
//   22   its documentation for any purpose.
//   23 
//   24   YOU FURTHER ACKNOWLEDGE AND AGREE THAT THE SOFTWARE AND DOCUMENTATION ARE
//   25   PROVIDED “AS IS?WITHOUT WARRANTY OF ANY KIND, EITHER EXPRESS OR IMPLIED,
//   26   INCLUDING WITHOUT LIMITATION, ANY WARRANTY OF MERCHANTABILITY, TITLE,
//   27   NON-INFRINGEMENT AND FITNESS FOR A PARTICULAR PURPOSE. IN NO EVENT SHALL
//   28   TEXAS INSTRUMENTS OR ITS LICENSORS BE LIABLE OR OBLIGATED UNDER CONTRACT,
//   29   NEGLIGENCE, STRICT LIABILITY, CONTRIBUTION, BREACH OF WARRANTY, OR OTHER
//   30   LEGAL EQUITABLE THEORY ANY DIRECT OR INDIRECT DAMAGES OR EXPENSES
//   31   INCLUDING BUT NOT LIMITED TO ANY INCIDENTAL, SPECIAL, INDIRECT, PUNITIVE
//   32   OR CONSEQUENTIAL DAMAGES, LOST PROFITS OR LOST DATA, COST OF PROCUREMENT
//   33   OF SUBSTITUTE GOODS, TECHNOLOGY, SERVICES, OR ANY CLAIMS BY THIRD PARTIES
//   34   (INCLUDING BUT NOT LIMITED TO ANY DEFENSE THEREOF), OR OTHER SIMILAR COSTS.
//   35 
//   36   Should you have any questions regarding your right to use this Software,
//   37   contact Texas Instruments Incorporated at www.TI.com.
//   38 ******************************************************************************/
//   39 
//   40 /*********************************************************************
//   41   This application isn't intended to do anything useful, it is
//   42   intended to be a simple example of an application's structure.
//   43 
//   44   This application sends "Hello World" to another "Generic"
//   45   application every 5 seconds.  The application will also
//   46   receives "Hello World" packets.
//   47 
//   48   The "Hello World" messages are sent/received as MSG type message.
//   49 
//   50   This applications doesn't have a profile, so it handles everything
//   51   directly - itself.
//   52 
//   53   Key control:
//   54     SW1:
//   55     SW2:  initiates end device binding
//   56     SW3:
//   57     SW4:  initiates a match description request
//   58 *********************************************************************/
//   59 
//   60 /*********************************************************************
//   61  * INCLUDES
//   62  */
//   63 #include "OSAL.h"
//   64 #include "AF.h"
//   65 #include "ZDApp.h"
//   66 #include "ZDObject.h"
//   67 #include "ZDProfile.h"
//   68 
//   69 #include "SmartHomeApp.h"
//   70 #include "DebugTrace.h"
//   71 
//   72 #if !defined( WIN32 )
//   73   #include "OnBoard.h"

        ASEGN SFR_AN:DATA:NOROOT,0a8H
// union <unnamed> volatile __sfr _A_IEN0
_A_IEN0:
        DATA8
        DS 1

        ASEGN SFR_AN:DATA:NOROOT,0c9H
// unsigned char volatile __sfr WDCTL
WDCTL:
        DATA8
        DS 1
//   74 #endif
//   75 
//   76 /* HAL */
//   77 #include "hal_lcd.h"
//   78 #include "hal_led.h"
//   79 #include "hal_key.h"
//   80 #include "hal_uart.h"
//   81 
//   82 #include "user_printf.h"
//   83 #include "Utils.h"
//   84 
//   85 #include "DefaultProcessor.h"
//   86 #include "DoorLight.h"
//   87 #include "DoorSensor.h"
//   88 
//   89 
//   90 /*********************************************************************
//   91  * MACROS
//   92  */
//   93 
//   94 /*********************************************************************
//   95  * CONSTANTS
//   96  */
//   97 
//   98 /*********************************************************************
//   99  * TYPEDEFS
//  100  */
//  101 
//  102 /*********************************************************************
//  103  * GLOBAL VARIABLES
//  104  */
//  105 // This list should be filled with Application specific Cluster IDs.

        RSEG XDATA_ROM_C:CONST:REORDER:NOROOT(0)
        DATA16
//  106 const cId_t SmartHomeApp_ClusterList[SmartHomeApp_MAX_CLUSTERS] =
SmartHomeApp_ClusterList:
        DW 1
//  107 {
//  108   SmartHomeApp_CLUSTERID
//  109 };
//  110 

        RSEG XDATA_ROM_C:CONST:REORDER:NOROOT(0)
        DATA8
//  111 const SimpleDescriptionFormat_t SmartHomeApp_SimpleDesc =
SmartHomeApp_SimpleDesc:
        DB 10
        DATA16
        DW 3844
        DW 1
        DATA8
        DB 0
        DB 1
        DATA16
        DW SmartHomeApp_ClusterList
        DATA8
        DB 1
        DATA16
        DW SmartHomeApp_ClusterList
//  112 {
//  113   SmartHomeApp_ENDPOINT,              //  int Endpoint;
//  114   SmartHomeApp_PROFID,                //  uint16 AppProfId[2];
//  115   SmartHomeApp_DEVICEID,              //  uint16 AppDeviceId[2];
//  116   SmartHomeApp_DEVICE_VERSION,        //  int   AppDevVer:4;
//  117   SmartHomeApp_FLAGS,                 //  int   AppFlags:4;
//  118   SmartHomeApp_MAX_CLUSTERS,          //  byte  AppNumInClusters;
//  119   (cId_t *)SmartHomeApp_ClusterList,  //  byte *pAppInClusterList;
//  120   SmartHomeApp_MAX_CLUSTERS,          //  byte  AppNumInClusters;
//  121   (cId_t *)SmartHomeApp_ClusterList   //  byte *pAppInClusterList;
//  122 };
//  123 
//  124 // This is the Endpoint/Interface description.  It is defined here, but
//  125 // filled-in in SmartHomeApp_Init().  Another way to go would be to fill
//  126 // in the structure here and make it a "const" (in code space).  The
//  127 // way it's defined in this sample app it is define in RAM.

        RSEG XDATA_Z:XDATA:NOROOT(0)
        DATA8
//  128 endPointDesc_t SmartHomeApp_epDesc;
SmartHomeApp_epDesc:
        DS 6
        REQUIRE __INIT_XDATA_Z
//  129 
//  130 #define SERIAL_APP_TX_MAX 64

        RSEG XDATA_Z:XDATA:NOROOT(0)
        DATA8
//  131 uint8 RxBuf[SERIAL_APP_TX_MAX+1];
RxBuf:
        DS 65
        REQUIRE __INIT_XDATA_Z

        RSEG XDATA_Z:XDATA:NOROOT(0)
        DATA8
//  132 static uint8 SerialApp_TxLen;
SerialApp_TxLen:
        DS 1
        REQUIRE __INIT_XDATA_Z

        RSEG XDATA_Z:XDATA:NOROOT(0)
        DATA16
//  133 static uint16 SmartHomeApp_LastSendAddr;
SmartHomeApp_LastSendAddr:
        DS 2
        REQUIRE __INIT_XDATA_Z

        RSEG XDATA_Z:XDATA:NOROOT(0)
        DATA16
//  134 static uint16 SmartHomeApp_LastSendTransID;
SmartHomeApp_LastSendTransID:
        DS 2
        REQUIRE __INIT_XDATA_Z
//  135 
//  136 /*********************************************************************
//  137  * EXTERNAL VARIABLES
//  138  */
//  139 
//  140 /*********************************************************************
//  141  * EXTERNAL FUNCTIONS
//  142  */
//  143 
//  144 /*********************************************************************
//  145  * LOCAL VARIABLES
//  146  */

        RSEG XDATA_Z:XDATA:NOROOT(0)
        DATA8
//  147 byte SmartHomeApp_TaskID;   // Task ID for internal task/event processing
SmartHomeApp_TaskID:
        DS 1
        REQUIRE __INIT_XDATA_Z
//  148                           // This variable will be received when
//  149                           // SmartHomeApp_Init() is called.

        RSEG XDATA_Z:XDATA:NOROOT(0)
        DATA8
//  150 devStates_t SmartHomeApp_NwkState;
SmartHomeApp_NwkState:
        DS 1
        REQUIRE __INIT_XDATA_Z
//  151 
//  152 

        RSEG XDATA_Z:XDATA:NOROOT(0)
        DATA8
//  153 byte SmartHomeApp_TransID;  // This is the unique message ID (counter)
SmartHomeApp_TransID:
        DS 1
        REQUIRE __INIT_XDATA_Z
//  154 

        RSEG XDATA_Z:XDATA:NOROOT(0)
        DATA8
//  155 afAddrType_t SmartHomeApp_DstAddr;
SmartHomeApp_DstAddr:
        DS 12
        REQUIRE __INIT_XDATA_Z
//  156 

        RSEG XDATA_Z:XDATA:NOROOT(0)
        DATA16
//  157 void (*Processor_HandleKeys)(uint8 keys);
Processor_HandleKeys:
        DS 2
        REQUIRE __INIT_XDATA_Z

        RSEG XDATA_Z:XDATA:NOROOT(0)
        DATA16
//  158 void (*Processor_HandleMsg)(uint8* msg);
Processor_HandleMsg:
        DS 2
        REQUIRE __INIT_XDATA_Z

        RSEG XDATA_Z:XDATA:NOROOT(0)
        DATA16
//  159 void (*Processor_Init)(void);
Processor_Init:
        DS 2
        REQUIRE __INIT_XDATA_Z

        RSEG XDATA_Z:XDATA:NOROOT(0)
        DATA16
//  160 void (*Processor_Update)(void);
Processor_Update:
        DS 2
        REQUIRE __INIT_XDATA_Z
//  161 
//  162 /*********************************************************************
//  163  * LOCAL FUNCTIONS
//  164  */
//  165 static void SmartHomeApp_ProcessZDOMsgs( zdoIncomingMsg_t *inMsg );
//  166 static void SmartHomeApp_HandleKeys( byte shift, byte keys );
//  167 static void SmartHomeApp_MessageMSGCB( afIncomingMSGPacket_t *pckt );
//  168 //static void SmartHomeApp_SendTheMessage( void );
//  169 
//  170 
//  171 
//  172 /*********************************************************************
//  173  * NETWORK LAYER CALLBACKS
//  174  */
//  175 
//  176 /*********************************************************************
//  177  * PUBLIC FUNCTIONS
//  178  */
//  179 
//  180 /*********************************************************************
//  181  * @fn      SmartHomeApp_Init
//  182  *
//  183  * @brief   Initialization function for the Generic App Task.
//  184  *          This is called during initialization and should contain
//  185  *          any application specific initialization (ie. hardware
//  186  *          initialization/setup, table initialization, power up
//  187  *          notificaiton ... ).
//  188  *
//  189  * @param   task_id - the ID assigned by OSAL.  This ID should be
//  190  *                    used to send messages and set timers.
//  191  *
//  192  * @return  none
//  193  */

        RSEG BANKED_CODE:CODE:NOROOT(0)
//  194 void SmartHomeApp_Init( uint8 task_id )
SmartHomeApp_Init:
        CFI Block cfiBlock0 Using cfiCommon0
        CFI Function SmartHomeApp_Init
        CODE
//  195 {
        FUNCALL SmartHomeApp_Init, HalUARTOpen
        LOCFRAME ISTACK, 0, STACK
        LOCFRAME PSTACK, 0, STACK
        LOCFRAME XSTACK, 39, STACK
        LOCFRAME IOVERLAY, 0, STATIC
        LOCFRAME DOVERLAY, 0, STATIC
        ARGFRAME ISTACK, 0, STACK
        ARGFRAME PSTACK, 0, STACK
        ARGFRAME XSTACK, 39, STACK
        ARGFRAME IOVERLAY, 0, STATIC
        ARGFRAME DOVERLAY, 0, STATIC
        FUNCALL SmartHomeApp_Init, Util_ReadName
        LOCFRAME ISTACK, 0, STACK
        LOCFRAME PSTACK, 0, STACK
        LOCFRAME XSTACK, 39, STACK
        LOCFRAME IOVERLAY, 0, STATIC
        LOCFRAME DOVERLAY, 0, STATIC
        ARGFRAME ISTACK, 0, STACK
        ARGFRAME PSTACK, 0, STACK
        ARGFRAME XSTACK, 39, STACK
        ARGFRAME IOVERLAY, 0, STATIC
        ARGFRAME DOVERLAY, 0, STATIC
        FUNCALL SmartHomeApp_Init, printf
        LOCFRAME ISTACK, 0, STACK
        LOCFRAME PSTACK, 0, STACK
        LOCFRAME XSTACK, 41, STACK
        LOCFRAME IOVERLAY, 0, STATIC
        LOCFRAME DOVERLAY, 0, STATIC
        ARGFRAME ISTACK, 0, STACK
        ARGFRAME PSTACK, 0, STACK
        ARGFRAME XSTACK, 41, STACK
        ARGFRAME IOVERLAY, 0, STATIC
        ARGFRAME DOVERLAY, 0, STATIC
        FUNCALL SmartHomeApp_Init, Util_ReadName
        LOCFRAME ISTACK, 0, STACK
        LOCFRAME PSTACK, 0, STACK
        LOCFRAME XSTACK, 39, STACK
        LOCFRAME IOVERLAY, 0, STATIC
        LOCFRAME DOVERLAY, 0, STATIC
        ARGFRAME ISTACK, 0, STACK
        ARGFRAME PSTACK, 0, STACK
        ARGFRAME XSTACK, 39, STACK
        ARGFRAME IOVERLAY, 0, STATIC
        ARGFRAME DOVERLAY, 0, STATIC
        FUNCALL SmartHomeApp_Init, Util_StrEqual
        LOCFRAME ISTACK, 0, STACK
        LOCFRAME PSTACK, 0, STACK
        LOCFRAME XSTACK, 39, STACK
        LOCFRAME IOVERLAY, 0, STATIC
        LOCFRAME DOVERLAY, 0, STATIC
        ARGFRAME ISTACK, 0, STACK
        ARGFRAME PSTACK, 0, STACK
        ARGFRAME XSTACK, 39, STACK
        ARGFRAME IOVERLAY, 0, STATIC
        ARGFRAME DOVERLAY, 0, STATIC
        FUNCALL SmartHomeApp_Init, Util_ReadName
        LOCFRAME ISTACK, 0, STACK
        LOCFRAME PSTACK, 0, STACK
        LOCFRAME XSTACK, 39, STACK
        LOCFRAME IOVERLAY, 0, STATIC
        LOCFRAME DOVERLAY, 0, STATIC
        ARGFRAME ISTACK, 0, STACK
        ARGFRAME PSTACK, 0, STACK
        ARGFRAME XSTACK, 39, STACK
        ARGFRAME IOVERLAY, 0, STATIC
        ARGFRAME DOVERLAY, 0, STATIC
        FUNCALL SmartHomeApp_Init, Util_StrEqual
        LOCFRAME ISTACK, 0, STACK
        LOCFRAME PSTACK, 0, STACK
        LOCFRAME XSTACK, 39, STACK
        LOCFRAME IOVERLAY, 0, STATIC
        LOCFRAME DOVERLAY, 0, STATIC
        ARGFRAME ISTACK, 0, STACK
        ARGFRAME PSTACK, 0, STACK
        ARGFRAME XSTACK, 39, STACK
        ARGFRAME IOVERLAY, 0, STATIC
        ARGFRAME DOVERLAY, 0, STATIC
        FUNCALL SmartHomeApp_Init, Util_ReadName
        LOCFRAME ISTACK, 0, STACK
        LOCFRAME PSTACK, 0, STACK
        LOCFRAME XSTACK, 39, STACK
        LOCFRAME IOVERLAY, 0, STATIC
        LOCFRAME DOVERLAY, 0, STATIC
        ARGFRAME ISTACK, 0, STACK
        ARGFRAME PSTACK, 0, STACK
        ARGFRAME XSTACK, 39, STACK
        ARGFRAME IOVERLAY, 0, STATIC
        ARGFRAME DOVERLAY, 0, STATIC
        FUNCALL SmartHomeApp_Init, printf
        LOCFRAME ISTACK, 0, STACK
        LOCFRAME PSTACK, 0, STACK
        LOCFRAME XSTACK, 41, STACK
        LOCFRAME IOVERLAY, 0, STATIC
        LOCFRAME DOVERLAY, 0, STATIC
        ARGFRAME ISTACK, 0, STACK
        ARGFRAME PSTACK, 0, STACK
        ARGFRAME XSTACK, 41, STACK
        ARGFRAME IOVERLAY, 0, STATIC
        ARGFRAME DOVERLAY, 0, STATIC
        FUNCALL SmartHomeApp_Init, afRegister
        LOCFRAME ISTACK, 0, STACK
        LOCFRAME PSTACK, 0, STACK
        LOCFRAME XSTACK, 39, STACK
        LOCFRAME IOVERLAY, 0, STATIC
        LOCFRAME DOVERLAY, 0, STATIC
        ARGFRAME ISTACK, 0, STACK
        ARGFRAME PSTACK, 0, STACK
        ARGFRAME XSTACK, 39, STACK
        ARGFRAME IOVERLAY, 0, STATIC
        ARGFRAME DOVERLAY, 0, STATIC
        FUNCALL SmartHomeApp_Init, RegisterForKeys
        LOCFRAME ISTACK, 0, STACK
        LOCFRAME PSTACK, 0, STACK
        LOCFRAME XSTACK, 39, STACK
        LOCFRAME IOVERLAY, 0, STATIC
        LOCFRAME DOVERLAY, 0, STATIC
        ARGFRAME ISTACK, 0, STACK
        ARGFRAME PSTACK, 0, STACK
        ARGFRAME XSTACK, 39, STACK
        ARGFRAME IOVERLAY, 0, STATIC
        ARGFRAME DOVERLAY, 0, STATIC
        FUNCALL SmartHomeApp_Init, ZDO_RegisterForZDOMsg
        LOCFRAME ISTACK, 0, STACK
        LOCFRAME PSTACK, 0, STACK
        LOCFRAME XSTACK, 39, STACK
        LOCFRAME IOVERLAY, 0, STATIC
        LOCFRAME DOVERLAY, 0, STATIC
        ARGFRAME ISTACK, 0, STACK
        ARGFRAME PSTACK, 0, STACK
        ARGFRAME XSTACK, 39, STACK
        ARGFRAME IOVERLAY, 0, STATIC
        ARGFRAME DOVERLAY, 0, STATIC
        FUNCALL SmartHomeApp_Init, ZDO_RegisterForZDOMsg
        LOCFRAME ISTACK, 0, STACK
        LOCFRAME PSTACK, 0, STACK
        LOCFRAME XSTACK, 39, STACK
        LOCFRAME IOVERLAY, 0, STATIC
        LOCFRAME DOVERLAY, 0, STATIC
        ARGFRAME ISTACK, 0, STACK
        ARGFRAME PSTACK, 0, STACK
        ARGFRAME XSTACK, 39, STACK
        ARGFRAME IOVERLAY, 0, STATIC
        ARGFRAME DOVERLAY, 0, STATIC
        MOV     A,#-0xa
        LCALL   ?BANKED_ENTER_XDATA
        CFI DPH0 load(1, XDATA, add(CFA_XSP16, literal(-1)))
        CFI DPL0 load(1, XDATA, add(CFA_XSP16, literal(-2)))
        CFI ?BRET_EXT load(1, XDATA, add(CFA_XSP16, literal(-3)))
        CFI ?RET_HIGH load(1, XDATA, add(CFA_XSP16, literal(-4)))
        CFI ?RET_LOW load(1, XDATA, add(CFA_XSP16, literal(-5)))
        CFI R7 load(1, XDATA, add(CFA_XSP16, literal(-6)))
        CFI V1 load(1, XDATA, add(CFA_XSP16, literal(-7)))
        CFI V0 load(1, XDATA, add(CFA_XSP16, literal(-8)))
        CFI VB load(1, XDATA, add(CFA_XSP16, literal(-9)))
        CFI R6 load(1, XDATA, add(CFA_XSP16, literal(-10)))
        CFI CFA_SP SP+0
        CFI CFA_XSP16 add(XSP16, 10)
        ; Saved register size: 10
        ; Auto size: 29
        MOV     A,#-0x1d
        LCALL   ?ALLOC_XSTACK8
        CFI CFA_XSP16 add(XSP16, 39)
        MOV     A,R1
//  196   SmartHomeApp_TaskID = task_id;
        MOV     DPTR,#SmartHomeApp_TaskID
        MOVX    @DPTR,A
//  197   SmartHomeApp_NwkState = DEV_INIT;
        MOV     DPTR,#SmartHomeApp_NwkState
        MOV     A,#0x1
        MOVX    @DPTR,A
//  198   SmartHomeApp_TransID = 0;
        MOV     DPTR,#SmartHomeApp_TransID
        CLR     A
        MOVX    @DPTR,A
//  199 
//  200   // Device hardware initialization can be added here or in main() (Zmain.c).
//  201   // If the hardware is application specific - add it here.
//  202   // If the hardware is other parts of the device add it in main().
//  203   
//  204   halUARTCfg_t uartConfig;
//  205   uartConfig.configured           = TRUE;
        MOV     DPL,?XSP + 0
        MOV     DPH,?XSP + 1
        INC     A
        MOVX    @DPTR,A
//  206   uartConfig.baudRate             = HAL_UART_BR_115200;
        LCALL   ?XSTACK_DISP0_8
        MOV     A,#0x4
        MOVX    @DPTR,A
//  207   uartConfig.flowControl          = FALSE;
        MOV     A,#0x2
        LCALL   ?XSTACK_DISP0_8
        CLR     A
        MOVX    @DPTR,A
//  208   uartConfig.flowControlThreshold = 48;
        MOV     A,#0x3
        LCALL   ?XSTACK_DISP0_8
        MOV     A,#0x30
        MOVX    @DPTR,A
        INC     DPTR
        CLR     A
        MOVX    @DPTR,A
//  209   uartConfig.rx.maxBufSize        = 128;
        MOV     A,#0xa
        LCALL   ?XSTACK_DISP0_8
        MOV     A,#-0x80
        MOVX    @DPTR,A
        INC     DPTR
        CLR     A
        MOVX    @DPTR,A
//  210   uartConfig.tx.maxBufSize        = 128;
        MOV     A,#0x12
        LCALL   ?XSTACK_DISP0_8
        MOV     A,#-0x80
        MOVX    @DPTR,A
        INC     DPTR
        CLR     A
        MOVX    @DPTR,A
//  211   uartConfig.idleTimeout          = 6;   
        MOV     A,#0x5
        LCALL   ?XSTACK_DISP0_8
        MOV     A,#0x6
        MOVX    @DPTR,A
//  212   uartConfig.intEnable            = TRUE;              
        MOV     A,#0x16
        LCALL   ?XSTACK_DISP0_8
        MOV     A,#0x1
        MOVX    @DPTR,A
//  213   uartConfig.callBackFunc         = SmartHomeApp_CallBack;
        MOV     A,#0x1b
        LCALL   ?XSTACK_DISP0_8
        MOV     A,#??SmartHomeApp_CallBack?relay & 0xff
        MOVX    @DPTR,A
        INC     DPTR
        MOV     A,#(??SmartHomeApp_CallBack?relay >> 8) & 0xff
        MOVX    @DPTR,A
//  214   HalUARTOpen (HAL_UART_PORT_0, &uartConfig);
        ; Setup parameters for call to function HalUARTOpen
        MOV     DPL,?XSP + 0
        MOV     DPH,?XSP + 1
        MOV     R2,DPL
        MOV     R3,DPH
        MOV     R1,#0x0
        LCALL   ??HalUARTOpen?relay
//  215   
//  216  // uint8 msg[] = "hello,world!";
//  217 //  HalUARTWrite(HAL_UART_PORT_0, msg, sizeof(msg));
//  218   
//  219   printf("My name is %s\n", Util_ReadName());
        ; Setup parameters for call to function printf
        ; Setup parameters for call to function Util_ReadName
        LCALL   ?Subroutine2 & 0xFFFF
??CrossCallReturnLabel_0:
        LCALL   ?PUSH_XSTACK_I_TWO
        CFI CFA_XSP16 add(XSP16, 41)
        MOV     R2,#`?<Constant "My name is %s\\n">` & 0xff
        MOV     R3,#(`?<Constant "My name is %s\\n">` >> 8) & 0xff
        LCALL   ?Subroutine3 & 0xFFFF
??CrossCallReturnLabel_6:
        LCALL   ?DEALLOC_XSTACK8
        CFI CFA_XSP16 add(XSP16, 39)
//  220   
//  221   if (Util_StrEqual((uint8*)"DoorLight", Util_ReadName())) {    
        ; Setup parameters for call to function Util_StrEqual
        ; Setup parameters for call to function Util_ReadName
        LCALL   ?Subroutine4 & 0xFFFF
??CrossCallReturnLabel_17:
        MOV     R2,#`?<Constant "DoorLight">` & 0xff
        MOV     R3,#(`?<Constant "DoorLight">` >> 8) & 0xff
        LCALL   ??Subroutine14_0 & 0xFFFF
??CrossCallReturnLabel_40:
        JZ      ??SmartHomeApp_Init_0
//  222     Processor_HandleKeys = &DoorLight_HandleKeys;
        MOV     DPTR,#Processor_HandleKeys
        MOV     A,#??DoorLight_HandleKeys?relay & 0xff
        MOVX    @DPTR,A
        INC     DPTR
        MOV     A,#(??DoorLight_HandleKeys?relay >> 8) & 0xff
        MOVX    @DPTR,A
//  223     Processor_HandleMsg = &DoorLight_HandleMsg;
        MOV     DPTR,#Processor_HandleMsg
        MOV     A,#??DoorLight_HandleMsg?relay & 0xff
        MOVX    @DPTR,A
        INC     DPTR
        MOV     A,#(??DoorLight_HandleMsg?relay >> 8) & 0xff
        MOVX    @DPTR,A
//  224     Processor_Init = &DoorLight_Init;
        MOV     DPTR,#Processor_Init
        MOV     A,#??DoorLight_Init?relay & 0xff
        MOVX    @DPTR,A
        INC     DPTR
        MOV     A,#(??DoorLight_Init?relay >> 8) & 0xff
        MOVX    @DPTR,A
//  225     Processor_Update = &DoorLight_Update;
        MOV     DPTR,#Processor_Update
        MOV     A,#??DoorLight_Update?relay & 0xff
        MOVX    @DPTR,A
        INC     DPTR
        MOV     A,#(??DoorLight_Update?relay >> 8) & 0xff
        SJMP    ??SmartHomeApp_Init_1
//  226     
//  227   } else if (Util_StrEqual((uint8*)"DoorSensor", Util_ReadName())) {    
??SmartHomeApp_Init_0:
        ; Setup parameters for call to function Util_StrEqual
        ; Setup parameters for call to function Util_ReadName
        LCALL   ?Subroutine4 & 0xFFFF
??CrossCallReturnLabel_18:
        MOV     R2,#`?<Constant "DoorSensor">` & 0xff
        MOV     R3,#(`?<Constant "DoorSensor">` >> 8) & 0xff
        LCALL   ??Subroutine14_0 & 0xFFFF
??CrossCallReturnLabel_41:
        JZ      ??SmartHomeApp_Init_2
//  228     Processor_HandleKeys = &DoorSensor_HandleKeys;
        MOV     DPTR,#Processor_HandleKeys
        MOV     A,#??DoorSensor_HandleKeys?relay & 0xff
        MOVX    @DPTR,A
        INC     DPTR
        MOV     A,#(??DoorSensor_HandleKeys?relay >> 8) & 0xff
        MOVX    @DPTR,A
//  229     Processor_HandleMsg = &DoorSensor_HandleMsg;
        MOV     DPTR,#Processor_HandleMsg
        MOV     A,#??DoorSensor_HandleMsg?relay & 0xff
        MOVX    @DPTR,A
        INC     DPTR
        MOV     A,#(??DoorSensor_HandleMsg?relay >> 8) & 0xff
        MOVX    @DPTR,A
//  230     Processor_Init = &DoorSensor_Init;
        MOV     DPTR,#Processor_Init
        MOV     A,#??DoorSensor_Init?relay & 0xff
        MOVX    @DPTR,A
        INC     DPTR
        MOV     A,#(??DoorSensor_Init?relay >> 8) & 0xff
        MOVX    @DPTR,A
//  231     Processor_Update = &DoorSensor_Update;
        MOV     DPTR,#Processor_Update
        MOV     A,#??DoorSensor_Update?relay & 0xff
        MOVX    @DPTR,A
        INC     DPTR
        MOV     A,#(??DoorSensor_Update?relay >> 8) & 0xff
        SJMP    ??SmartHomeApp_Init_1
//  232     
//  233   } else {
//  234     printf("ERROR: Unkown name: %s\n", Util_ReadName());
??SmartHomeApp_Init_2:
        ; Setup parameters for call to function printf
        ; Setup parameters for call to function Util_ReadName
        LCALL   ?Subroutine2 & 0xFFFF
??CrossCallReturnLabel_1:
        LCALL   ?PUSH_XSTACK_I_TWO
        CFI CFA_XSP16 add(XSP16, 41)
        MOV     R2,#`?<Constant "ERROR: Unkown name: %s\\n">` & 0xff
        MOV     R3,#(`?<Constant "ERROR: Unkown name: %s\\n">` >> 8) & 0xff
        LCALL   ?Subroutine3 & 0xFFFF
??CrossCallReturnLabel_7:
        LCALL   ?DEALLOC_XSTACK8
        CFI CFA_XSP16 add(XSP16, 39)
//  235     Processor_HandleKeys = &DefaultProcessor_HandleKeys;
        MOV     DPTR,#Processor_HandleKeys
        MOV     A,#??DefaultProcessor_HandleKeys?relay & 0xff
        MOVX    @DPTR,A
        INC     DPTR
        MOV     A,#(??DefaultProcessor_HandleKeys?relay >> 8) & 0xff
        MOVX    @DPTR,A
//  236     Processor_HandleMsg = &DefaultProcessor_HandleMsg;
        MOV     DPTR,#Processor_HandleMsg
        MOV     A,#??DefaultProcessor_HandleMsg?relay & 0xff
        MOVX    @DPTR,A
        INC     DPTR
        MOV     A,#(??DefaultProcessor_HandleMsg?relay >> 8) & 0xff
        MOVX    @DPTR,A
//  237     Processor_Init = &DefaultProcessor_Init;
        MOV     DPTR,#Processor_Init
        MOV     A,#??DefaultProcessor_Init?relay & 0xff
        MOVX    @DPTR,A
        INC     DPTR
        MOV     A,#(??DefaultProcessor_Init?relay >> 8) & 0xff
        MOVX    @DPTR,A
//  238     Processor_Update = &DefaultProcessor_Update;
        MOV     DPTR,#Processor_Update
        MOV     A,#??DefaultProcessor_Update?relay & 0xff
        MOVX    @DPTR,A
        INC     DPTR
        MOV     A,#(??DefaultProcessor_Update?relay >> 8) & 0xff
??SmartHomeApp_Init_1:
        MOVX    @DPTR,A
//  239   }
//  240   
//  241   Processor_Init();
        ; Setup parameters for indirect call
        MOV     DPTR,#Processor_Init
        LCALL   ?Subroutine7 & 0xFFFF
??CrossCallReturnLabel_22:
        LCALL   ?CALL_IND
//  242   
//  243   SmartHomeApp_DstAddr.addrMode = (afAddrMode_t)AddrNotPresent;
        MOV     DPTR,#SmartHomeApp_DstAddr + 8
        CLR     A
        MOVX    @DPTR,A
//  244   SmartHomeApp_DstAddr.endPoint = SmartHomeApp_ENDPOINT;
        INC     DPTR
        MOV     A,#0xa
        MOVX    @DPTR,A
//  245   SmartHomeApp_DstAddr.addr.shortAddr = 0;
        MOV     DPTR,#SmartHomeApp_DstAddr
        CLR     A
        MOVX    @DPTR,A
        INC     DPTR
        MOVX    @DPTR,A
//  246 
//  247   
//  248   
//  249   // Fill out the endpoint description.
//  250   SmartHomeApp_epDesc.endPoint = SmartHomeApp_ENDPOINT;
        MOV     DPTR,#SmartHomeApp_epDesc
        MOV     A,#0xa
        MOVX    @DPTR,A
//  251   SmartHomeApp_epDesc.task_id = &SmartHomeApp_TaskID;
        INC     DPTR
        MOV     A,#SmartHomeApp_TaskID & 0xff
        MOVX    @DPTR,A
        INC     DPTR
        MOV     A,#(SmartHomeApp_TaskID >> 8) & 0xff
        MOVX    @DPTR,A
//  252   SmartHomeApp_epDesc.simpleDesc
//  253             = (SimpleDescriptionFormat_t *)&SmartHomeApp_SimpleDesc;
        INC     DPTR
        MOV     A,#SmartHomeApp_SimpleDesc & 0xff
        MOVX    @DPTR,A
        INC     DPTR
        MOV     A,#(SmartHomeApp_SimpleDesc >> 8) & 0xff
        MOVX    @DPTR,A
//  254   SmartHomeApp_epDesc.latencyReq = noLatencyReqs;
        INC     DPTR
        CLR     A
        MOVX    @DPTR,A
//  255 
//  256   // Register the endpoint description with the AF
//  257   afRegister( &SmartHomeApp_epDesc );
        ; Setup parameters for call to function afRegister
        MOV     R2,#SmartHomeApp_epDesc & 0xff
        MOV     R3,#(SmartHomeApp_epDesc >> 8) & 0xff
        LCALL   ??afRegister?relay
//  258 
//  259   // Register for all key events - This app will handle all key events
//  260   RegisterForKeys( SmartHomeApp_TaskID );
        ; Setup parameters for call to function RegisterForKeys
        MOV     DPTR,#SmartHomeApp_TaskID
        MOVX    A,@DPTR
        MOV     R1,A
        LCALL   ??RegisterForKeys?relay
//  261 
//  262   // Update the display
//  263 #if defined ( LCD_SUPPORTED )
//  264   HalLcdWriteString( "SmartHomeApp", HAL_LCD_LINE_1 );
//  265 #endif
//  266 
//  267   ZDO_RegisterForZDOMsg( SmartHomeApp_TaskID, End_Device_Bind_rsp );
        ; Setup parameters for call to function ZDO_RegisterForZDOMsg
        MOV     R2,#0x20
        MOV     R3,#-0x80
        MOV     DPTR,#SmartHomeApp_TaskID
        MOVX    A,@DPTR
        MOV     R1,A
        LCALL   ??ZDO_RegisterForZDOMsg?relay
//  268   ZDO_RegisterForZDOMsg( SmartHomeApp_TaskID, Match_Desc_rsp );
        ; Setup parameters for call to function ZDO_RegisterForZDOMsg
        MOV     R2,#0x6
        MOV     R3,#-0x80
        MOV     DPTR,#SmartHomeApp_TaskID
        MOVX    A,@DPTR
        MOV     R1,A
        LCALL   ??ZDO_RegisterForZDOMsg?relay
//  269 
//  270 }
        MOV     A,#0x1d
        LCALL   ?DEALLOC_XSTACK8
        CFI CFA_XSP16 add(XSP16, 10)
        MOV     R7,#0x2
        LJMP    ?BANKED_LEAVE_XDATA
        CFI EndBlock cfiBlock0
//  271 
//  272 

        RSEG BANKED_CODE:CODE:NOROOT(0)
//  273 void SmartHome_SendCmd(uint8* buf)
SmartHome_SendCmd:
        CFI Block cfiBlock1 Using cfiCommon0
        CFI Function SmartHome_SendCmd
        CODE
//  274 {
        FUNCALL SmartHome_SendCmd, NameAddrCache_getAddrFromCmd
        LOCFRAME ISTACK, 0, STACK
        LOCFRAME PSTACK, 0, STACK
        LOCFRAME XSTACK, 12, STACK
        LOCFRAME IOVERLAY, 0, STATIC
        LOCFRAME DOVERLAY, 0, STATIC
        ARGFRAME ISTACK, 0, STACK
        ARGFRAME PSTACK, 0, STACK
        ARGFRAME XSTACK, 12, STACK
        ARGFRAME IOVERLAY, 0, STATIC
        ARGFRAME DOVERLAY, 0, STATIC
        FUNCALL SmartHome_SendCmd, osal_strlen
        LOCFRAME ISTACK, 0, STACK
        LOCFRAME PSTACK, 0, STACK
        LOCFRAME XSTACK, 17, STACK
        LOCFRAME IOVERLAY, 0, STATIC
        LOCFRAME DOVERLAY, 0, STATIC
        ARGFRAME ISTACK, 0, STACK
        ARGFRAME PSTACK, 0, STACK
        ARGFRAME XSTACK, 17, STACK
        ARGFRAME IOVERLAY, 0, STATIC
        ARGFRAME DOVERLAY, 0, STATIC
        FUNCALL SmartHome_SendCmd, AF_DataRequest
        LOCFRAME ISTACK, 0, STACK
        LOCFRAME PSTACK, 0, STACK
        LOCFRAME XSTACK, 21, STACK
        LOCFRAME IOVERLAY, 0, STATIC
        LOCFRAME DOVERLAY, 0, STATIC
        ARGFRAME ISTACK, 0, STACK
        ARGFRAME PSTACK, 0, STACK
        ARGFRAME XSTACK, 21, STACK
        ARGFRAME IOVERLAY, 0, STATIC
        ARGFRAME DOVERLAY, 0, STATIC
        FUNCALL SmartHome_SendCmd, printf
        LOCFRAME ISTACK, 0, STACK
        LOCFRAME PSTACK, 0, STACK
        LOCFRAME XSTACK, 14, STACK
        LOCFRAME IOVERLAY, 0, STATIC
        LOCFRAME DOVERLAY, 0, STATIC
        ARGFRAME ISTACK, 0, STACK
        ARGFRAME PSTACK, 0, STACK
        ARGFRAME XSTACK, 14, STACK
        ARGFRAME IOVERLAY, 0, STATIC
        ARGFRAME DOVERLAY, 0, STATIC
        MOV     A,#-0xc
        LCALL   ?BANKED_ENTER_XDATA
        CFI DPH0 load(1, XDATA, add(CFA_XSP16, literal(-1)))
        CFI DPL0 load(1, XDATA, add(CFA_XSP16, literal(-2)))
        CFI ?BRET_EXT load(1, XDATA, add(CFA_XSP16, literal(-3)))
        CFI ?RET_HIGH load(1, XDATA, add(CFA_XSP16, literal(-4)))
        CFI ?RET_LOW load(1, XDATA, add(CFA_XSP16, literal(-5)))
        CFI R7 load(1, XDATA, add(CFA_XSP16, literal(-6)))
        CFI V3 load(1, XDATA, add(CFA_XSP16, literal(-7)))
        CFI V2 load(1, XDATA, add(CFA_XSP16, literal(-8)))
        CFI V1 load(1, XDATA, add(CFA_XSP16, literal(-9)))
        CFI V0 load(1, XDATA, add(CFA_XSP16, literal(-10)))
        CFI VB load(1, XDATA, add(CFA_XSP16, literal(-11)))
        CFI R6 load(1, XDATA, add(CFA_XSP16, literal(-12)))
        CFI CFA_SP SP+0
        CFI CFA_XSP16 add(XSP16, 12)
        ; Saved register size: 12
        ; Auto size: 0
        MOV     ?V0 + 0,R2
        MOV     ?V0 + 1,R3
//  275   
//  276   uint16 destAddr;
//  277   
//  278   destAddr =  NameAddrCache_getAddrFromCmd(buf);
        ; Setup parameters for call to function NameAddrCache_getAddrFromCmd
        LCALL   ??NameAddrCache_getAddrFromCmd?relay
        MOV     ?V0 + 2,R2
        MOV     ?V0 + 3,R3
        MOV     R0,?V0 + 2
        MOV     R1,?V0 + 3
//  279   
//  280   if (destAddr == 0xFFFF) {
        MOV     A,#-0x1
        XRL     A,R0
        JNZ     ??SmartHome_SendCmd_0
        MOV     A,#-0x1
        XRL     A,R1
??SmartHome_SendCmd_0:
        MOV     DPTR,#SmartHomeApp_DstAddr + 8
        JNZ     ??SmartHome_SendCmd_1
//  281     SmartHomeApp_DstAddr.addrMode = afAddrBroadcast;
        MOV     A,#0xf
        SJMP    ??SmartHome_SendCmd_2
//  282   } else {
//  283     SmartHomeApp_DstAddr.addrMode = afAddr16Bit;
??SmartHome_SendCmd_1:
        MOV     A,#0x2
        MOVX    @DPTR,A
//  284     SmartHomeApp_LastSendAddr = destAddr;
        MOV     DPTR,#SmartHomeApp_LastSendAddr
        MOV     A,R0
        MOVX    @DPTR,A
        INC     DPTR
        MOV     A,R1
        MOVX    @DPTR,A
//  285     SmartHomeApp_LastSendTransID = SmartHomeApp_TransID;
        MOV     DPTR,#SmartHomeApp_TransID
        MOVX    A,@DPTR
        MOV     DPTR,#SmartHomeApp_LastSendTransID
        MOVX    @DPTR,A
        INC     DPTR
        CLR     A
??SmartHome_SendCmd_2:
        MOVX    @DPTR,A
//  286   }
//  287  
//  288   SmartHomeApp_DstAddr.addr.shortAddr=destAddr;
        MOV     DPTR,#SmartHomeApp_DstAddr
        MOV     A,R0
        MOVX    @DPTR,A
        INC     DPTR
        MOV     A,R1
        MOVX    @DPTR,A
//  289  
//  290     
//  291   SmartHomeApp_DstAddr.endPoint = SmartHomeApp_ENDPOINT;
        MOV     DPTR,#SmartHomeApp_DstAddr + 9
        MOV     A,#0xa
        MOVX    @DPTR,A
//  292   
//  293   if ( AF_DataRequest( &SmartHomeApp_DstAddr, &SmartHomeApp_epDesc,
//  294                        SmartHomeApp_CLUSTERID,
//  295                        (byte)osal_strlen( (char*)buf ) + 1,
//  296                        (byte *)buf,
//  297                        &SmartHomeApp_TransID,
//  298                        AF_DISCV_ROUTE, AF_DEFAULT_RADIUS ) == afStatus_SUCCESS )
        ; Setup parameters for call to function AF_DataRequest
        MOV     ?V0 + 2,#0x1e
        MOV     R0,#?V0 + 2
        LCALL   ?PUSH_XSTACK_I_ONE
        CFI CFA_XSP16 add(XSP16, 13)
        MOV     ?V0 + 2,#SmartHomeApp_TransID & 0xff
        MOV     ?V0 + 3,#(SmartHomeApp_TransID >> 8) & 0xff
        MOV     R0,#?V0 + 2
        LCALL   ?PUSH_XSTACK_I_TWO
        CFI CFA_XSP16 add(XSP16, 15)
        MOV     R0,#?V0 + 0
        LCALL   ?PUSH_XSTACK_I_TWO
        CFI CFA_XSP16 add(XSP16, 17)
        ; Setup parameters for call to function osal_strlen
        MOV     R2,?V0 + 0
        MOV     R3,?V0 + 1
        LCALL   ??osal_strlen?relay
        MOV     A,R2
        ADD     A,#0x1
        MOV     ?V0 + 2,A
        CLR     A
        ADDC    A,#0x0
        MOV     ?V0 + 3,A
        MOV     R0,#?V0 + 2
        LCALL   ?PUSH_XSTACK_I_TWO
        CFI CFA_XSP16 add(XSP16, 19)
        MOV     ?V0 + 2,#0x1
        MOV     ?V0 + 3,#0x0
        MOV     R0,#?V0 + 2
        LCALL   ?PUSH_XSTACK_I_TWO
        CFI CFA_XSP16 add(XSP16, 21)
        MOV     R1,#0x20
        MOV     R4,#SmartHomeApp_epDesc & 0xff
        MOV     R5,#(SmartHomeApp_epDesc >> 8) & 0xff
        MOV     R2,#SmartHomeApp_DstAddr & 0xff
        MOV     R3,#(SmartHomeApp_DstAddr >> 8) & 0xff
        LCALL   ??AF_DataRequest?relay
        MOV     A,#0x9
        LCALL   ?DEALLOC_XSTACK8
        CFI CFA_XSP16 add(XSP16, 12)
        MOV     A,R1
        JZ      ??SmartHome_SendCmd_3
//  299   {
//  300   //  printf("SendCmdOK:%s\n", buf);
//  301   } else {
//  302     printf("SendCmdFailed:%s\n", buf); 
        ; Setup parameters for call to function printf
        MOV     R0,#?V0 + 0
        LCALL   ?PUSH_XSTACK_I_TWO
        CFI CFA_XSP16 add(XSP16, 14)
        MOV     R2,#`?<Constant "SendCmdFailed:%s\\n">` & 0xff
        MOV     R3,#(`?<Constant "SendCmdFailed:%s\\n">` >> 8) & 0xff
        LCALL   ?Subroutine3 & 0xFFFF
//  303   }
??CrossCallReturnLabel_8:
        LCALL   ?DEALLOC_XSTACK8
        CFI CFA_XSP16 add(XSP16, 12)
//  304   
//  305 }
??SmartHome_SendCmd_3:
        LJMP    ?Subroutine0 & 0xFFFF
        CFI EndBlock cfiBlock1
//  306 

        RSEG BANKED_CODE:CODE:NOROOT(0)
//  307 static void processUartCB(uint8* buf, uint8 len)
processUartCB:
        CFI Block cfiBlock2 Using cfiCommon0
        CFI Function processUartCB
        CODE
//  308 {
        FUNCALL processUartCB, Util_StrEqual
        LOCFRAME ISTACK, 0, STACK
        LOCFRAME PSTACK, 0, STACK
        LOCFRAME XSTACK, 12, STACK
        LOCFRAME IOVERLAY, 0, STATIC
        LOCFRAME DOVERLAY, 0, STATIC
        ARGFRAME ISTACK, 0, STACK
        ARGFRAME PSTACK, 0, STACK
        ARGFRAME XSTACK, 12, STACK
        ARGFRAME IOVERLAY, 0, STATIC
        ARGFRAME DOVERLAY, 0, STATIC
        FUNCALL processUartCB, Util_ReadName
        LOCFRAME ISTACK, 0, STACK
        LOCFRAME PSTACK, 0, STACK
        LOCFRAME XSTACK, 12, STACK
        LOCFRAME IOVERLAY, 0, STATIC
        LOCFRAME DOVERLAY, 0, STATIC
        ARGFRAME ISTACK, 0, STACK
        ARGFRAME PSTACK, 0, STACK
        ARGFRAME XSTACK, 12, STACK
        ARGFRAME IOVERLAY, 0, STATIC
        ARGFRAME DOVERLAY, 0, STATIC
        FUNCALL processUartCB, printf
        LOCFRAME ISTACK, 0, STACK
        LOCFRAME PSTACK, 0, STACK
        LOCFRAME XSTACK, 14, STACK
        LOCFRAME IOVERLAY, 0, STATIC
        LOCFRAME DOVERLAY, 0, STATIC
        ARGFRAME ISTACK, 0, STACK
        ARGFRAME PSTACK, 0, STACK
        ARGFRAME XSTACK, 14, STACK
        ARGFRAME IOVERLAY, 0, STATIC
        ARGFRAME DOVERLAY, 0, STATIC
        FUNCALL processUartCB, Util_StartWith
        LOCFRAME ISTACK, 0, STACK
        LOCFRAME PSTACK, 0, STACK
        LOCFRAME XSTACK, 12, STACK
        LOCFRAME IOVERLAY, 0, STATIC
        LOCFRAME DOVERLAY, 0, STATIC
        ARGFRAME ISTACK, 0, STACK
        ARGFRAME PSTACK, 0, STACK
        ARGFRAME XSTACK, 12, STACK
        ARGFRAME IOVERLAY, 0, STATIC
        ARGFRAME DOVERLAY, 0, STATIC
        FUNCALL processUartCB, Util_WriteName
        LOCFRAME ISTACK, 0, STACK
        LOCFRAME PSTACK, 0, STACK
        LOCFRAME XSTACK, 12, STACK
        LOCFRAME IOVERLAY, 0, STATIC
        LOCFRAME DOVERLAY, 0, STATIC
        ARGFRAME ISTACK, 0, STACK
        ARGFRAME PSTACK, 0, STACK
        ARGFRAME XSTACK, 12, STACK
        ARGFRAME IOVERLAY, 0, STATIC
        ARGFRAME DOVERLAY, 0, STATIC
        FUNCALL processUartCB, Util_ReadName
        LOCFRAME ISTACK, 0, STACK
        LOCFRAME PSTACK, 0, STACK
        LOCFRAME XSTACK, 12, STACK
        LOCFRAME IOVERLAY, 0, STATIC
        LOCFRAME DOVERLAY, 0, STATIC
        ARGFRAME ISTACK, 0, STACK
        ARGFRAME PSTACK, 0, STACK
        ARGFRAME XSTACK, 12, STACK
        ARGFRAME IOVERLAY, 0, STATIC
        ARGFRAME DOVERLAY, 0, STATIC
        FUNCALL processUartCB, printf
        LOCFRAME ISTACK, 0, STACK
        LOCFRAME PSTACK, 0, STACK
        LOCFRAME XSTACK, 14, STACK
        LOCFRAME IOVERLAY, 0, STATIC
        LOCFRAME DOVERLAY, 0, STATIC
        ARGFRAME ISTACK, 0, STACK
        ARGFRAME PSTACK, 0, STACK
        ARGFRAME XSTACK, 14, STACK
        ARGFRAME IOVERLAY, 0, STATIC
        ARGFRAME DOVERLAY, 0, STATIC
        FUNCALL processUartCB, Util_StrEqual
        LOCFRAME ISTACK, 0, STACK
        LOCFRAME PSTACK, 0, STACK
        LOCFRAME XSTACK, 12, STACK
        LOCFRAME IOVERLAY, 0, STATIC
        LOCFRAME DOVERLAY, 0, STATIC
        ARGFRAME ISTACK, 0, STACK
        ARGFRAME PSTACK, 0, STACK
        ARGFRAME XSTACK, 12, STACK
        ARGFRAME IOVERLAY, 0, STATIC
        ARGFRAME DOVERLAY, 0, STATIC
        FUNCALL processUartCB, Util_StartWith
        LOCFRAME ISTACK, 0, STACK
        LOCFRAME PSTACK, 0, STACK
        LOCFRAME XSTACK, 12, STACK
        LOCFRAME IOVERLAY, 0, STATIC
        LOCFRAME DOVERLAY, 0, STATIC
        ARGFRAME ISTACK, 0, STACK
        ARGFRAME PSTACK, 0, STACK
        ARGFRAME XSTACK, 12, STACK
        ARGFRAME IOVERLAY, 0, STATIC
        ARGFRAME DOVERLAY, 0, STATIC
        FUNCALL processUartCB, SmartHome_SendCmd
        LOCFRAME ISTACK, 0, STACK
        LOCFRAME PSTACK, 0, STACK
        LOCFRAME XSTACK, 12, STACK
        LOCFRAME IOVERLAY, 0, STATIC
        LOCFRAME DOVERLAY, 0, STATIC
        ARGFRAME ISTACK, 0, STACK
        ARGFRAME PSTACK, 0, STACK
        ARGFRAME XSTACK, 12, STACK
        ARGFRAME IOVERLAY, 0, STATIC
        ARGFRAME DOVERLAY, 0, STATIC
        FUNCALL processUartCB, printf
        LOCFRAME ISTACK, 0, STACK
        LOCFRAME PSTACK, 0, STACK
        LOCFRAME XSTACK, 14, STACK
        LOCFRAME IOVERLAY, 0, STATIC
        LOCFRAME DOVERLAY, 0, STATIC
        ARGFRAME ISTACK, 0, STACK
        ARGFRAME PSTACK, 0, STACK
        ARGFRAME XSTACK, 14, STACK
        ARGFRAME IOVERLAY, 0, STATIC
        ARGFRAME DOVERLAY, 0, STATIC
        MOV     A,#-0xc
        LCALL   ?BANKED_ENTER_XDATA
        CFI DPH0 load(1, XDATA, add(CFA_XSP16, literal(-1)))
        CFI DPL0 load(1, XDATA, add(CFA_XSP16, literal(-2)))
        CFI ?BRET_EXT load(1, XDATA, add(CFA_XSP16, literal(-3)))
        CFI ?RET_HIGH load(1, XDATA, add(CFA_XSP16, literal(-4)))
        CFI ?RET_LOW load(1, XDATA, add(CFA_XSP16, literal(-5)))
        CFI R7 load(1, XDATA, add(CFA_XSP16, literal(-6)))
        CFI V3 load(1, XDATA, add(CFA_XSP16, literal(-7)))
        CFI V2 load(1, XDATA, add(CFA_XSP16, literal(-8)))
        CFI V1 load(1, XDATA, add(CFA_XSP16, literal(-9)))
        CFI V0 load(1, XDATA, add(CFA_XSP16, literal(-10)))
        CFI VB load(1, XDATA, add(CFA_XSP16, literal(-11)))
        CFI R6 load(1, XDATA, add(CFA_XSP16, literal(-12)))
        CFI CFA_SP SP+0
        CFI CFA_XSP16 add(XSP16, 12)
        ; Saved register size: 12
        ; Auto size: 0
        MOV     ?V0 + 0,R2
        MOV     ?V0 + 1,R3
        MOV     A,R1
        MOV     R6,A
//  309   // process UART input
//  310   if (Util_StrEqual(buf, "ReadName")) {
        ; Setup parameters for call to function Util_StrEqual
        MOV     R4,#`?<Constant "ReadName">` & 0xff
        MOV     R5,#(`?<Constant "ReadName">` >> 8) & 0xff
        LCALL   ??Subroutine14_0 & 0xFFFF
??CrossCallReturnLabel_42:
        JZ      ??processUartCB_0
//  311     printf("ReadName:%s\n", Util_ReadName());
        ; Setup parameters for call to function printf
        ; Setup parameters for call to function Util_ReadName
        LCALL   ?Subroutine2 & 0xFFFF
//  312   } else if (Util_StartWith(buf, "WriteName ")) {
??CrossCallReturnLabel_2:
        LCALL   ?PUSH_XSTACK_I_TWO
        CFI CFA_XSP16 add(XSP16, 14)
        MOV     R2,#`?<Constant "ReadName:%s\\n">` & 0xff
        MOV     R3,#(`?<Constant "ReadName:%s\\n">` >> 8) & 0xff
        SJMP    ??processUartCB_1
        CFI CFA_XSP16 add(XSP16, 12)
??processUartCB_0:
        ; Setup parameters for call to function Util_StartWith
        MOV     R4,#`?<Constant "WriteName ">` & 0xff
        MOV     R5,#(`?<Constant "WriteName ">` >> 8) & 0xff
        MOV     R2,?V0 + 0
        MOV     R3,?V0 + 1
        LCALL   ??Util_StartWith?relay
        MOV     A,R1
        JZ      ??processUartCB_2
//  313     Util_WriteName(buf + 10, len - 9);
        ; Setup parameters for call to function Util_WriteName
        MOV     A,R6
        ADD     A,#-0x9
        MOV     R4,A
        CLR     A
        ADDC    A,#-0x1
        MOV     R5,A
        MOV     A,?V0 + 0
        ADD     A,#0xa
        MOV     R2,A
        MOV     A,?V0 + 1
        ADDC    A,#0x0
        MOV     R3,A
        LCALL   ??Util_WriteName?relay
//  314     printf("WriteName:%s\n", Util_ReadName());
        ; Setup parameters for call to function printf
        ; Setup parameters for call to function Util_ReadName
        LCALL   ?Subroutine2 & 0xFFFF
//  315   } else  if (Util_StrEqual(buf, "SystemReset")) {
??CrossCallReturnLabel_3:
        LCALL   ?PUSH_XSTACK_I_TWO
        CFI CFA_XSP16 add(XSP16, 14)
        MOV     R2,#`?<Constant "WriteName:%s\\n">` & 0xff
        MOV     R3,#(`?<Constant "WriteName:%s\\n">` >> 8) & 0xff
        SJMP    ??processUartCB_1
        CFI CFA_XSP16 add(XSP16, 12)
??processUartCB_2:
        ; Setup parameters for call to function Util_StrEqual
        MOV     R4,#`?<Constant "SystemReset">` & 0xff
        MOV     R5,#(`?<Constant "SystemReset">` >> 8) & 0xff
        LCALL   ?Subroutine6 & 0xFFFF
??CrossCallReturnLabel_39:
        JZ      ??processUartCB_3
//  316     SystemReset();
        CLR     0xa8.7
        CLR     0xa8.7
        MOV     0xc9,#-0x55
        MOV     0xc9,#0x5b
??processUartCB_4:
        SJMP    ??processUartCB_4
//  317   } else if (Util_StartWith(buf, "SendCmd ")) {
??processUartCB_3:
        ; Setup parameters for call to function Util_StartWith
        MOV     R4,#`?<Constant "SendCmd ">` & 0xff
        MOV     R5,#(`?<Constant "SendCmd ">` >> 8) & 0xff
        MOV     R2,?V0 + 0
        MOV     R3,?V0 + 1
        LCALL   ??Util_StartWith?relay
        MOV     A,R1
        JZ      ??processUartCB_5
//  318     SmartHome_SendCmd(buf + 8);
        ; Setup parameters for call to function SmartHome_SendCmd
        MOV     A,?V0 + 0
        ADD     A,#0x8
        MOV     R2,A
        MOV     A,?V0 + 1
        ADDC    A,#0x0
        MOV     R3,A
        LCALL   ??SmartHome_SendCmd?relay
        SJMP    ??processUartCB_6
//  319   } else {
//  320     
//  321     printf("Unkown Cmd:%s\n", buf); 
??processUartCB_5:
        ; Setup parameters for call to function printf
        MOV     R0,#?V0 + 0
        LCALL   ?PUSH_XSTACK_I_TWO
        CFI CFA_XSP16 add(XSP16, 14)
        MOV     R2,#`?<Constant "Unkown Cmd:%s\\n">` & 0xff
        MOV     R3,#(`?<Constant "Unkown Cmd:%s\\n">` >> 8) & 0xff
//  322   }
??processUartCB_1:
        LCALL   ?Subroutine3 & 0xFFFF
??CrossCallReturnLabel_9:
        LCALL   ?DEALLOC_XSTACK8
        CFI CFA_XSP16 add(XSP16, 12)
//  323   
//  324   
//  325 }
??processUartCB_6:
        LJMP    ?Subroutine0 & 0xFFFF
        CFI EndBlock cfiBlock2
        REQUIRE _A_IEN0
        REQUIRE WDCTL

        RSEG BANKED_CODE:CODE:NOROOT(0)
?Subroutine6:
        CFI Block cfiCond3 Using cfiCommon0
        CFI NoFunction
        CFI Conditional ??CrossCallReturnLabel_39
        CFI R6 load(1, XDATA, add(CFA_XSP16, literal(-12)))
        CFI VB load(1, XDATA, add(CFA_XSP16, literal(-11)))
        CFI V0 load(1, XDATA, add(CFA_XSP16, literal(-10)))
        CFI V1 load(1, XDATA, add(CFA_XSP16, literal(-9)))
        CFI V2 load(1, XDATA, add(CFA_XSP16, literal(-8)))
        CFI V3 load(1, XDATA, add(CFA_XSP16, literal(-7)))
        CFI R7 load(1, XDATA, add(CFA_XSP16, literal(-6)))
        CFI ?RET_LOW load(1, XDATA, add(CFA_XSP16, literal(-5)))
        CFI ?RET_HIGH load(1, XDATA, add(CFA_XSP16, literal(-4)))
        CFI ?BRET_EXT load(1, XDATA, add(CFA_XSP16, literal(-3)))
        CFI DPL0 load(1, XDATA, add(CFA_XSP16, literal(-2)))
        CFI DPH0 load(1, XDATA, add(CFA_XSP16, literal(-1)))
        CFI CFA_SP SP+0
        CFI CFA_XSP16 add(XSP16, 12)
        CFI Block cfiCond4 Using cfiCommon0
        CFI (cfiCond4) NoFunction
        CFI (cfiCond4) Conditional ??CrossCallReturnLabel_44
        CFI (cfiCond4) R6 load(1, XDATA, add(CFA_XSP16, literal(-12)))
        CFI (cfiCond4) VB load(1, XDATA, add(CFA_XSP16, literal(-11)))
        CFI (cfiCond4) V0 load(1, XDATA, add(CFA_XSP16, literal(-10)))
        CFI (cfiCond4) V1 load(1, XDATA, add(CFA_XSP16, literal(-9)))
        CFI (cfiCond4) V2 load(1, XDATA, add(CFA_XSP16, literal(-8)))
        CFI (cfiCond4) V3 load(1, XDATA, add(CFA_XSP16, literal(-7)))
        CFI (cfiCond4) R7 load(1, XDATA, add(CFA_XSP16, literal(-6)))
        CFI (cfiCond4) ?RET_LOW load(1, XDATA, add(CFA_XSP16, literal(-5)))
        CFI (cfiCond4) ?RET_HIGH load(1, XDATA, add(CFA_XSP16, literal(-4)))
        CFI (cfiCond4) ?BRET_EXT load(1, XDATA, add(CFA_XSP16, literal(-3)))
        CFI (cfiCond4) DPL0 load(1, XDATA, add(CFA_XSP16, literal(-2)))
        CFI (cfiCond4) DPH0 load(1, XDATA, add(CFA_XSP16, literal(-1)))
        CFI (cfiCond4) CFA_SP SP+0
        CFI (cfiCond4) CFA_XSP16 add(XSP16, 12)
        CFI Block cfiPicker5 Using cfiCommon1
        CFI (cfiPicker5) NoFunction
        CFI (cfiPicker5) Picker
        MOV     R2,?V0 + 0
        MOV     R3,?V0 + 1
        CFI EndBlock cfiCond3
        CFI EndBlock cfiCond4
        CFI EndBlock cfiPicker5
        REQUIRE ??Subroutine14_0
        ; // Fall through to label ??Subroutine14_0

        RSEG BANKED_CODE:CODE:NOROOT(0)
??Subroutine14_0:
        CFI Block cfiCond6 Using cfiCommon0
        CFI NoFunction
        CFI Conditional ??CrossCallReturnLabel_40
        CFI R6 load(1, XDATA, add(CFA_XSP16, literal(-10)))
        CFI VB load(1, XDATA, add(CFA_XSP16, literal(-9)))
        CFI V0 load(1, XDATA, add(CFA_XSP16, literal(-8)))
        CFI V1 load(1, XDATA, add(CFA_XSP16, literal(-7)))
        CFI R7 load(1, XDATA, add(CFA_XSP16, literal(-6)))
        CFI ?RET_LOW load(1, XDATA, add(CFA_XSP16, literal(-5)))
        CFI ?RET_HIGH load(1, XDATA, add(CFA_XSP16, literal(-4)))
        CFI ?BRET_EXT load(1, XDATA, add(CFA_XSP16, literal(-3)))
        CFI DPL0 load(1, XDATA, add(CFA_XSP16, literal(-2)))
        CFI DPH0 load(1, XDATA, add(CFA_XSP16, literal(-1)))
        CFI CFA_SP SP+0
        CFI CFA_XSP16 add(XSP16, 39)
        CFI Block cfiCond7 Using cfiCommon0
        CFI (cfiCond7) NoFunction
        CFI (cfiCond7) Conditional ??CrossCallReturnLabel_41
        CFI (cfiCond7) R6 load(1, XDATA, add(CFA_XSP16, literal(-10)))
        CFI (cfiCond7) VB load(1, XDATA, add(CFA_XSP16, literal(-9)))
        CFI (cfiCond7) V0 load(1, XDATA, add(CFA_XSP16, literal(-8)))
        CFI (cfiCond7) V1 load(1, XDATA, add(CFA_XSP16, literal(-7)))
        CFI (cfiCond7) R7 load(1, XDATA, add(CFA_XSP16, literal(-6)))
        CFI (cfiCond7) ?RET_LOW load(1, XDATA, add(CFA_XSP16, literal(-5)))
        CFI (cfiCond7) ?RET_HIGH load(1, XDATA, add(CFA_XSP16, literal(-4)))
        CFI (cfiCond7) ?BRET_EXT load(1, XDATA, add(CFA_XSP16, literal(-3)))
        CFI (cfiCond7) DPL0 load(1, XDATA, add(CFA_XSP16, literal(-2)))
        CFI (cfiCond7) DPH0 load(1, XDATA, add(CFA_XSP16, literal(-1)))
        CFI (cfiCond7) CFA_SP SP+0
        CFI (cfiCond7) CFA_XSP16 add(XSP16, 39)
        CFI Block cfiCond8 Using cfiCommon0
        CFI (cfiCond8) NoFunction
        CFI (cfiCond8) Conditional ??CrossCallReturnLabel_42
        CFI (cfiCond8) R6 load(1, XDATA, add(CFA_XSP16, literal(-12)))
        CFI (cfiCond8) VB load(1, XDATA, add(CFA_XSP16, literal(-11)))
        CFI (cfiCond8) V0 load(1, XDATA, add(CFA_XSP16, literal(-10)))
        CFI (cfiCond8) V1 load(1, XDATA, add(CFA_XSP16, literal(-9)))
        CFI (cfiCond8) V2 load(1, XDATA, add(CFA_XSP16, literal(-8)))
        CFI (cfiCond8) V3 load(1, XDATA, add(CFA_XSP16, literal(-7)))
        CFI (cfiCond8) R7 load(1, XDATA, add(CFA_XSP16, literal(-6)))
        CFI (cfiCond8) ?RET_LOW load(1, XDATA, add(CFA_XSP16, literal(-5)))
        CFI (cfiCond8) ?RET_HIGH load(1, XDATA, add(CFA_XSP16, literal(-4)))
        CFI (cfiCond8) ?BRET_EXT load(1, XDATA, add(CFA_XSP16, literal(-3)))
        CFI (cfiCond8) DPL0 load(1, XDATA, add(CFA_XSP16, literal(-2)))
        CFI (cfiCond8) DPH0 load(1, XDATA, add(CFA_XSP16, literal(-1)))
        CFI (cfiCond8) CFA_SP SP+0
        CFI (cfiCond8) CFA_XSP16 add(XSP16, 12)
        CFI Block cfiCond9 Using cfiCommon0
        CFI (cfiCond9) NoFunction
        CFI (cfiCond9) Conditional ??CrossCallReturnLabel_43
        CFI (cfiCond9) R6 load(1, XDATA, add(CFA_XSP16, literal(-12)))
        CFI (cfiCond9) VB load(1, XDATA, add(CFA_XSP16, literal(-11)))
        CFI (cfiCond9) V0 load(1, XDATA, add(CFA_XSP16, literal(-10)))
        CFI (cfiCond9) V1 load(1, XDATA, add(CFA_XSP16, literal(-9)))
        CFI (cfiCond9) V2 load(1, XDATA, add(CFA_XSP16, literal(-8)))
        CFI (cfiCond9) V3 load(1, XDATA, add(CFA_XSP16, literal(-7)))
        CFI (cfiCond9) R7 load(1, XDATA, add(CFA_XSP16, literal(-6)))
        CFI (cfiCond9) ?RET_LOW load(1, XDATA, add(CFA_XSP16, literal(-5)))
        CFI (cfiCond9) ?RET_HIGH load(1, XDATA, add(CFA_XSP16, literal(-4)))
        CFI (cfiCond9) ?BRET_EXT load(1, XDATA, add(CFA_XSP16, literal(-3)))
        CFI (cfiCond9) DPL0 load(1, XDATA, add(CFA_XSP16, literal(-2)))
        CFI (cfiCond9) DPH0 load(1, XDATA, add(CFA_XSP16, literal(-1)))
        CFI (cfiCond9) CFA_SP SP+0
        CFI (cfiCond9) CFA_XSP16 add(XSP16, 12)
        CFI Block cfiCond10 Using cfiCommon0
        CFI (cfiCond10) NoFunction
        CFI (cfiCond10) Conditional ??CrossCallReturnLabel_39
        CFI (cfiCond10) R6 load(1, XDATA, add(CFA_XSP16, literal(-12)))
        CFI (cfiCond10) VB load(1, XDATA, add(CFA_XSP16, literal(-11)))
        CFI (cfiCond10) V0 load(1, XDATA, add(CFA_XSP16, literal(-10)))
        CFI (cfiCond10) V1 load(1, XDATA, add(CFA_XSP16, literal(-9)))
        CFI (cfiCond10) V2 load(1, XDATA, add(CFA_XSP16, literal(-8)))
        CFI (cfiCond10) V3 load(1, XDATA, add(CFA_XSP16, literal(-7)))
        CFI (cfiCond10) R7 load(1, XDATA, add(CFA_XSP16, literal(-6)))
        CFI (cfiCond10) ?RET_LOW load(1, XDATA, add(CFA_XSP16, literal(-5)))
        CFI (cfiCond10) ?RET_HIGH load(1, XDATA, add(CFA_XSP16, literal(-4)))
        CFI (cfiCond10) ?BRET_EXT load(1, XDATA, add(CFA_XSP16, literal(-3)))
        CFI (cfiCond10) DPL0 load(1, XDATA, add(CFA_XSP16, literal(-2)))
        CFI (cfiCond10) DPH0 load(1, XDATA, add(CFA_XSP16, literal(-1)))
        CFI (cfiCond10) CFA_SP SP+0
        CFI (cfiCond10) CFA_XSP16 add(XSP16, 12)
        CFI Block cfiCond11 Using cfiCommon0
        CFI (cfiCond11) NoFunction
        CFI (cfiCond11) Conditional ??CrossCallReturnLabel_44
        CFI (cfiCond11) R6 load(1, XDATA, add(CFA_XSP16, literal(-12)))
        CFI (cfiCond11) VB load(1, XDATA, add(CFA_XSP16, literal(-11)))
        CFI (cfiCond11) V0 load(1, XDATA, add(CFA_XSP16, literal(-10)))
        CFI (cfiCond11) V1 load(1, XDATA, add(CFA_XSP16, literal(-9)))
        CFI (cfiCond11) V2 load(1, XDATA, add(CFA_XSP16, literal(-8)))
        CFI (cfiCond11) V3 load(1, XDATA, add(CFA_XSP16, literal(-7)))
        CFI (cfiCond11) R7 load(1, XDATA, add(CFA_XSP16, literal(-6)))
        CFI (cfiCond11) ?RET_LOW load(1, XDATA, add(CFA_XSP16, literal(-5)))
        CFI (cfiCond11) ?RET_HIGH load(1, XDATA, add(CFA_XSP16, literal(-4)))
        CFI (cfiCond11) ?BRET_EXT load(1, XDATA, add(CFA_XSP16, literal(-3)))
        CFI (cfiCond11) DPL0 load(1, XDATA, add(CFA_XSP16, literal(-2)))
        CFI (cfiCond11) DPH0 load(1, XDATA, add(CFA_XSP16, literal(-1)))
        CFI (cfiCond11) CFA_SP SP+0
        CFI (cfiCond11) CFA_XSP16 add(XSP16, 12)
        CFI Block cfiPicker12 Using cfiCommon1
        CFI (cfiPicker12) NoFunction
        CFI (cfiPicker12) Picker
        LCALL   ??Util_StrEqual?relay
        MOV     A,R1
        RET
        CFI EndBlock cfiCond6
        CFI EndBlock cfiCond7
        CFI EndBlock cfiCond8
        CFI EndBlock cfiCond9
        CFI EndBlock cfiCond10
        CFI EndBlock cfiCond11
        CFI EndBlock cfiPicker12
//  326 
//  327 

        RSEG BANKED_CODE:CODE:NOROOT(0)
//  328 static void SmartHomeApp_CallBack(uint8 port, uint8 event)
SmartHomeApp_CallBack:
        CFI Block cfiBlock13 Using cfiCommon0
        CFI Function SmartHomeApp_CallBack
        CODE
//  329 {
        FUNCALL SmartHomeApp_CallBack, HalUARTRead
        LOCFRAME ISTACK, 0, STACK
        LOCFRAME PSTACK, 0, STACK
        LOCFRAME XSTACK, 9, STACK
        LOCFRAME IOVERLAY, 0, STATIC
        LOCFRAME DOVERLAY, 0, STATIC
        ARGFRAME ISTACK, 0, STACK
        ARGFRAME PSTACK, 0, STACK
        ARGFRAME XSTACK, 9, STACK
        ARGFRAME IOVERLAY, 0, STATIC
        ARGFRAME DOVERLAY, 0, STATIC
        FUNCALL SmartHomeApp_CallBack, processUartCB
        LOCFRAME ISTACK, 0, STACK
        LOCFRAME PSTACK, 0, STACK
        LOCFRAME XSTACK, 9, STACK
        LOCFRAME IOVERLAY, 0, STATIC
        LOCFRAME DOVERLAY, 0, STATIC
        ARGFRAME ISTACK, 0, STACK
        ARGFRAME PSTACK, 0, STACK
        ARGFRAME XSTACK, 9, STACK
        ARGFRAME IOVERLAY, 0, STATIC
        ARGFRAME DOVERLAY, 0, STATIC
        MOV     A,#-0x9
        LCALL   ?BANKED_ENTER_XDATA
        CFI DPH0 load(1, XDATA, add(CFA_XSP16, literal(-1)))
        CFI DPL0 load(1, XDATA, add(CFA_XSP16, literal(-2)))
        CFI ?BRET_EXT load(1, XDATA, add(CFA_XSP16, literal(-3)))
        CFI ?RET_HIGH load(1, XDATA, add(CFA_XSP16, literal(-4)))
        CFI ?RET_LOW load(1, XDATA, add(CFA_XSP16, literal(-5)))
        CFI R7 load(1, XDATA, add(CFA_XSP16, literal(-6)))
        CFI V0 load(1, XDATA, add(CFA_XSP16, literal(-7)))
        CFI VB load(1, XDATA, add(CFA_XSP16, literal(-8)))
        CFI R6 load(1, XDATA, add(CFA_XSP16, literal(-9)))
        CFI CFA_SP SP+0
        CFI CFA_XSP16 add(XSP16, 9)
        ; Saved register size: 9
        ; Auto size: 0
        MOV     A,R2
        MOV     R6,A
//  330   (void)port;
//  331   
//  332   if ((event & (HAL_UART_RX_FULL | HAL_UART_RX_ABOUT_FULL | HAL_UART_RX_TIMEOUT)) &&
//  333 #if SERIAL_APP_LOOPBACK
//  334       (SerialApp_TxLen < SERIAL_APP_TX_MAX))
//  335 #else
//  336       !SerialApp_TxLen)
        MOV     A,#0x7
        ANL     A,R6
        JZ      ??SmartHomeApp_CallBack_0
        MOV     DPTR,#SerialApp_TxLen
        MOVX    A,@DPTR
        JNZ     ??SmartHomeApp_CallBack_0
//  337 #endif
//  338   {
//  339     SerialApp_TxLen = HalUARTRead(0, RxBuf, SERIAL_APP_TX_MAX);
        ; Setup parameters for call to function HalUARTRead
        MOV     R4,#0x40
        MOV     R5,#0x0
        MOV     R2,#RxBuf & 0xff
        MOV     R3,#(RxBuf >> 8) & 0xff
        MOV     R1,#0x0
        LCALL   ??HalUARTRead?relay
        MOV     A,R2
        MOV     DPTR,#SerialApp_TxLen
        MOVX    @DPTR,A
//  340     if (SerialApp_TxLen)
        JZ      ??SmartHomeApp_CallBack_0
//  341     {
//  342       RxBuf[SerialApp_TxLen] = 0;
        MOV     R0,A
        MOV     A,#RxBuf & 0xff
        ADD     A,R0
        MOV     DPL,A
        MOV     A,#(RxBuf >> 8) & 0xff
        ADDC    A,#0x0
        MOV     DPH,A
        CLR     A
        MOVX    @DPTR,A
//  343       processUartCB(RxBuf, SerialApp_TxLen);
        ; Setup parameters for call to function processUartCB
        MOV     DPTR,#SerialApp_TxLen
        MOVX    A,@DPTR
        MOV     R1,A
        MOV     R2,#RxBuf & 0xff
        MOV     R3,#(RxBuf >> 8) & 0xff
        LCALL   ??processUartCB?relay
//  344         
//  345      
//  346       SerialApp_TxLen=0;
        MOV     DPTR,#SerialApp_TxLen
        CLR     A
        MOVX    @DPTR,A
//  347     }
//  348   }
//  349   
//  350 
//  351 //  if ((event & (HAL_UART_RX_FULL | HAL_UART_RX_ABOUT_FULL | HAL_UART_RX_TIMEOUT)) &&
//  352 //#if SERIAL_APP_LOOPBACK
//  353 //      (SerialApp_TxLen < SERIAL_APP_TX_MAX))
//  354 //#else
//  355 //      !SerialApp_TxLen)
//  356 //#endif
//  357 //  {
//  358 //    SerialApp_Send();
//  359 //  }
//  360 }
??SmartHomeApp_CallBack_0:
        MOV     R7,#0x1
        LJMP    ?BANKED_LEAVE_XDATA
        CFI EndBlock cfiBlock13
//  361 
//  362 /*********************************************************************
//  363  * @fn      SmartHomeApp_ProcessEvent
//  364  *
//  365  * @brief   Generic Application Task event processor.  This function
//  366  *          is called to process all events for the task.  Events
//  367  *          include timers, messages and any other user defined events.
//  368  *
//  369  * @param   task_id  - The OSAL assigned task ID.
//  370  * @param   events - events to process.  This is a bit map and can
//  371  *                   contain more than one event.
//  372  *
//  373  * @return  none
//  374  */

        RSEG BANKED_CODE:CODE:NOROOT(0)
//  375 uint16 SmartHomeApp_ProcessEvent( uint8 task_id, uint16 events )
SmartHomeApp_ProcessEvent:
        CFI Block cfiBlock14 Using cfiCommon0
        CFI Function SmartHomeApp_ProcessEvent
        CODE
//  376 {
        FUNCALL SmartHomeApp_ProcessEvent, osal_msg_receive
        LOCFRAME ISTACK, 0, STACK
        LOCFRAME PSTACK, 0, STACK
        LOCFRAME XSTACK, 14, STACK
        LOCFRAME IOVERLAY, 0, STATIC
        LOCFRAME DOVERLAY, 0, STATIC
        ARGFRAME ISTACK, 0, STACK
        ARGFRAME PSTACK, 0, STACK
        ARGFRAME XSTACK, 14, STACK
        ARGFRAME IOVERLAY, 0, STATIC
        ARGFRAME DOVERLAY, 0, STATIC
        FUNCALL SmartHomeApp_ProcessEvent, NLME_GetShortAddr
        LOCFRAME ISTACK, 0, STACK
        LOCFRAME PSTACK, 0, STACK
        LOCFRAME XSTACK, 14, STACK
        LOCFRAME IOVERLAY, 0, STATIC
        LOCFRAME DOVERLAY, 0, STATIC
        ARGFRAME ISTACK, 0, STACK
        ARGFRAME PSTACK, 0, STACK
        ARGFRAME XSTACK, 14, STACK
        ARGFRAME IOVERLAY, 0, STATIC
        ARGFRAME DOVERLAY, 0, STATIC
        FUNCALL SmartHomeApp_ProcessEvent, NLME_GetCoordShortAddr
        LOCFRAME ISTACK, 0, STACK
        LOCFRAME PSTACK, 0, STACK
        LOCFRAME XSTACK, 14, STACK
        LOCFRAME IOVERLAY, 0, STATIC
        LOCFRAME DOVERLAY, 0, STATIC
        ARGFRAME ISTACK, 0, STACK
        ARGFRAME PSTACK, 0, STACK
        ARGFRAME XSTACK, 14, STACK
        ARGFRAME IOVERLAY, 0, STATIC
        ARGFRAME DOVERLAY, 0, STATIC
        FUNCALL SmartHomeApp_ProcessEvent, printf
        LOCFRAME ISTACK, 0, STACK
        LOCFRAME PSTACK, 0, STACK
        LOCFRAME XSTACK, 18, STACK
        LOCFRAME IOVERLAY, 0, STATIC
        LOCFRAME DOVERLAY, 0, STATIC
        ARGFRAME ISTACK, 0, STACK
        ARGFRAME PSTACK, 0, STACK
        ARGFRAME XSTACK, 18, STACK
        ARGFRAME IOVERLAY, 0, STATIC
        ARGFRAME DOVERLAY, 0, STATIC
        FUNCALL SmartHomeApp_ProcessEvent, osal_start_timerEx
        LOCFRAME ISTACK, 0, STACK
        LOCFRAME PSTACK, 0, STACK
        LOCFRAME XSTACK, 14, STACK
        LOCFRAME IOVERLAY, 0, STATIC
        LOCFRAME DOVERLAY, 0, STATIC
        ARGFRAME ISTACK, 0, STACK
        ARGFRAME PSTACK, 0, STACK
        ARGFRAME XSTACK, 14, STACK
        ARGFRAME IOVERLAY, 0, STATIC
        ARGFRAME DOVERLAY, 0, STATIC
        FUNCALL SmartHomeApp_ProcessEvent, osal_msg_deallocate
        LOCFRAME ISTACK, 0, STACK
        LOCFRAME PSTACK, 0, STACK
        LOCFRAME XSTACK, 14, STACK
        LOCFRAME IOVERLAY, 0, STATIC
        LOCFRAME DOVERLAY, 0, STATIC
        ARGFRAME ISTACK, 0, STACK
        ARGFRAME PSTACK, 0, STACK
        ARGFRAME XSTACK, 14, STACK
        ARGFRAME IOVERLAY, 0, STATIC
        ARGFRAME DOVERLAY, 0, STATIC
        FUNCALL SmartHomeApp_ProcessEvent, osal_msg_receive
        LOCFRAME ISTACK, 0, STACK
        LOCFRAME PSTACK, 0, STACK
        LOCFRAME XSTACK, 14, STACK
        LOCFRAME IOVERLAY, 0, STATIC
        LOCFRAME DOVERLAY, 0, STATIC
        ARGFRAME ISTACK, 0, STACK
        ARGFRAME PSTACK, 0, STACK
        ARGFRAME XSTACK, 14, STACK
        ARGFRAME IOVERLAY, 0, STATIC
        ARGFRAME DOVERLAY, 0, STATIC
        FUNCALL SmartHomeApp_ProcessEvent, ZDO_ParseEPListRsp
        LOCFRAME ISTACK, 0, STACK
        LOCFRAME PSTACK, 0, STACK
        LOCFRAME XSTACK, 14, STACK
        LOCFRAME IOVERLAY, 0, STATIC
        LOCFRAME DOVERLAY, 0, STATIC
        ARGFRAME ISTACK, 0, STACK
        ARGFRAME PSTACK, 0, STACK
        ARGFRAME XSTACK, 14, STACK
        ARGFRAME IOVERLAY, 0, STATIC
        ARGFRAME DOVERLAY, 0, STATIC
        FUNCALL SmartHomeApp_ProcessEvent, HalLedSet
        LOCFRAME ISTACK, 0, STACK
        LOCFRAME PSTACK, 0, STACK
        LOCFRAME XSTACK, 14, STACK
        LOCFRAME IOVERLAY, 0, STATIC
        LOCFRAME DOVERLAY, 0, STATIC
        ARGFRAME ISTACK, 0, STACK
        ARGFRAME PSTACK, 0, STACK
        ARGFRAME XSTACK, 14, STACK
        ARGFRAME IOVERLAY, 0, STATIC
        ARGFRAME DOVERLAY, 0, STATIC
        FUNCALL SmartHomeApp_ProcessEvent, osal_mem_free
        LOCFRAME ISTACK, 0, STACK
        LOCFRAME PSTACK, 0, STACK
        LOCFRAME XSTACK, 14, STACK
        LOCFRAME IOVERLAY, 0, STATIC
        LOCFRAME DOVERLAY, 0, STATIC
        ARGFRAME ISTACK, 0, STACK
        ARGFRAME PSTACK, 0, STACK
        ARGFRAME XSTACK, 14, STACK
        ARGFRAME IOVERLAY, 0, STATIC
        ARGFRAME DOVERLAY, 0, STATIC
        FUNCALL SmartHomeApp_ProcessEvent, HalLedSet
        LOCFRAME ISTACK, 0, STACK
        LOCFRAME PSTACK, 0, STACK
        LOCFRAME XSTACK, 14, STACK
        LOCFRAME IOVERLAY, 0, STATIC
        LOCFRAME DOVERLAY, 0, STATIC
        ARGFRAME ISTACK, 0, STACK
        ARGFRAME PSTACK, 0, STACK
        ARGFRAME XSTACK, 14, STACK
        ARGFRAME IOVERLAY, 0, STATIC
        ARGFRAME DOVERLAY, 0, STATIC
        FUNCALL SmartHomeApp_ProcessEvent, HalLedSet
        LOCFRAME ISTACK, 0, STACK
        LOCFRAME PSTACK, 0, STACK
        LOCFRAME XSTACK, 14, STACK
        LOCFRAME IOVERLAY, 0, STATIC
        LOCFRAME DOVERLAY, 0, STATIC
        ARGFRAME ISTACK, 0, STACK
        ARGFRAME PSTACK, 0, STACK
        ARGFRAME XSTACK, 14, STACK
        ARGFRAME IOVERLAY, 0, STATIC
        ARGFRAME DOVERLAY, 0, STATIC
        FUNCALL SmartHomeApp_ProcessEvent, printf
        LOCFRAME ISTACK, 0, STACK
        LOCFRAME PSTACK, 0, STACK
        LOCFRAME XSTACK, 16, STACK
        LOCFRAME IOVERLAY, 0, STATIC
        LOCFRAME DOVERLAY, 0, STATIC
        ARGFRAME ISTACK, 0, STACK
        ARGFRAME PSTACK, 0, STACK
        ARGFRAME XSTACK, 16, STACK
        ARGFRAME IOVERLAY, 0, STATIC
        ARGFRAME DOVERLAY, 0, STATIC
        FUNCALL SmartHomeApp_ProcessEvent, NameAddrCache_delete
        LOCFRAME ISTACK, 0, STACK
        LOCFRAME PSTACK, 0, STACK
        LOCFRAME XSTACK, 14, STACK
        LOCFRAME IOVERLAY, 0, STATIC
        LOCFRAME DOVERLAY, 0, STATIC
        ARGFRAME ISTACK, 0, STACK
        ARGFRAME PSTACK, 0, STACK
        ARGFRAME XSTACK, 14, STACK
        ARGFRAME IOVERLAY, 0, STATIC
        ARGFRAME DOVERLAY, 0, STATIC
        FUNCALL SmartHomeApp_ProcessEvent, printf
        LOCFRAME ISTACK, 0, STACK
        LOCFRAME PSTACK, 0, STACK
        LOCFRAME XSTACK, 16, STACK
        LOCFRAME IOVERLAY, 0, STATIC
        LOCFRAME DOVERLAY, 0, STATIC
        ARGFRAME ISTACK, 0, STACK
        ARGFRAME PSTACK, 0, STACK
        ARGFRAME XSTACK, 16, STACK
        ARGFRAME IOVERLAY, 0, STATIC
        ARGFRAME DOVERLAY, 0, STATIC
        FUNCALL SmartHomeApp_ProcessEvent, SmartHomeApp_MessageMSGCB
        LOCFRAME ISTACK, 0, STACK
        LOCFRAME PSTACK, 0, STACK
        LOCFRAME XSTACK, 14, STACK
        LOCFRAME IOVERLAY, 0, STATIC
        LOCFRAME DOVERLAY, 0, STATIC
        ARGFRAME ISTACK, 0, STACK
        ARGFRAME PSTACK, 0, STACK
        ARGFRAME XSTACK, 14, STACK
        ARGFRAME IOVERLAY, 0, STATIC
        ARGFRAME DOVERLAY, 0, STATIC
        FUNCALL SmartHomeApp_ProcessEvent, osal_start_timerEx
        LOCFRAME ISTACK, 0, STACK
        LOCFRAME PSTACK, 0, STACK
        LOCFRAME XSTACK, 14, STACK
        LOCFRAME IOVERLAY, 0, STATIC
        LOCFRAME DOVERLAY, 0, STATIC
        ARGFRAME ISTACK, 0, STACK
        ARGFRAME PSTACK, 0, STACK
        ARGFRAME XSTACK, 14, STACK
        ARGFRAME IOVERLAY, 0, STATIC
        ARGFRAME DOVERLAY, 0, STATIC
        MOV     A,#-0xe
        LCALL   ?BANKED_ENTER_XDATA
        CFI DPH0 load(1, XDATA, add(CFA_XSP16, literal(-1)))
        CFI DPL0 load(1, XDATA, add(CFA_XSP16, literal(-2)))
        CFI ?BRET_EXT load(1, XDATA, add(CFA_XSP16, literal(-3)))
        CFI ?RET_HIGH load(1, XDATA, add(CFA_XSP16, literal(-4)))
        CFI ?RET_LOW load(1, XDATA, add(CFA_XSP16, literal(-5)))
        CFI R7 load(1, XDATA, add(CFA_XSP16, literal(-6)))
        CFI V5 load(1, XDATA, add(CFA_XSP16, literal(-7)))
        CFI V4 load(1, XDATA, add(CFA_XSP16, literal(-8)))
        CFI V3 load(1, XDATA, add(CFA_XSP16, literal(-9)))
        CFI V2 load(1, XDATA, add(CFA_XSP16, literal(-10)))
        CFI V1 load(1, XDATA, add(CFA_XSP16, literal(-11)))
        CFI V0 load(1, XDATA, add(CFA_XSP16, literal(-12)))
        CFI VB load(1, XDATA, add(CFA_XSP16, literal(-13)))
        CFI R6 load(1, XDATA, add(CFA_XSP16, literal(-14)))
        CFI CFA_SP SP+0
        CFI CFA_XSP16 add(XSP16, 14)
        ; Saved register size: 14
        ; Auto size: 0
        MOV     A,R2
        MOV     R6,A
        MOV     A,R3
        MOV     R7,A
//  377   afIncomingMSGPacket_t *MSGpkt;
//  378   afDataConfirm_t *afDataConfirm;
//  379 
//  380   // Data Confirmation message fields
//  381   byte sentEP;
//  382   ZStatus_t sentStatus;
//  383   byte sentTransID;       // This should match the value sent
//  384   (void)task_id;  // Intentionally unreferenced parameter
//  385 
//  386   if ( events & SYS_EVENT_MSG )
        ANL     A,#0x80
        JNZ     $+5
        LJMP    ??SmartHomeApp_ProcessEvent_0 & 0xFFFF
//  387   {
//  388     MSGpkt = (afIncomingMSGPacket_t *)osal_msg_receive( SmartHomeApp_TaskID );
        ; Setup parameters for call to function osal_msg_receive
        SJMP    ??SmartHomeApp_ProcessEvent_1
//  389     while ( MSGpkt )
//  390     {
//  391       switch ( MSGpkt->hdr.event )
//  392       {
//  393         case ZDO_CB_MSG:
//  394           SmartHomeApp_ProcessZDOMsgs( (zdoIncomingMsg_t *)MSGpkt );
//  395           break;
//  396 
//  397         case KEY_CHANGE:
//  398           SmartHomeApp_HandleKeys( ((keyChange_t *)MSGpkt)->state, ((keyChange_t *)MSGpkt)->keys );
//  399           break;
//  400 
//  401         case AF_DATA_CONFIRM_CMD:
//  402           // This message is received as a confirmation of a data packet sent.
//  403           // The status is of ZStatus_t type [defined in ZComDef.h]
//  404           // The message fields are defined in AF.h
//  405           afDataConfirm = (afDataConfirm_t *)MSGpkt;
//  406           sentEP = afDataConfirm->endpoint;
//  407           sentStatus = afDataConfirm->hdr.status;
//  408           sentTransID = afDataConfirm->transID;
//  409           (void)sentEP;
//  410           (void)sentTransID;
//  411 
//  412           // Action taken when confirmation is received.
//  413           if ( sentStatus != ZSuccess )
//  414           {
//  415             // The data wasn't delivered -- Do something
//  416             printf("SendMsgFailed:%X\n", sentTransID);
//  417             if (SmartHomeApp_LastSendTransID == sentTransID) {
//  418               NameAddrCache_delete(SmartHomeApp_LastSendAddr);
//  419             }
//  420             
//  421           } else {
//  422             printf("SendMsgOK:%X\n", sentTransID);
//  423             
//  424           }
//  425           break;
//  426 
//  427         case AF_INCOMING_MSG_CMD:
//  428           SmartHomeApp_MessageMSGCB( MSGpkt );
//  429           break;
//  430 
//  431         case ZDO_STATE_CHANGE:
//  432           SmartHomeApp_NwkState = (devStates_t)(MSGpkt->hdr.status);
??SmartHomeApp_ProcessEvent_2:
        INC     DPTR
        MOVX    A,@DPTR
        MOV     DPTR,#SmartHomeApp_NwkState
        MOVX    @DPTR,A
//  433           if ( (SmartHomeApp_NwkState == DEV_ZB_COORD)
//  434               || (SmartHomeApp_NwkState == DEV_ROUTER)
//  435               || (SmartHomeApp_NwkState == DEV_END_DEVICE) )
        XRL     A,#0x9
        JZ      ??SmartHomeApp_ProcessEvent_3
        MOVX    A,@DPTR
        XRL     A,#0x7
        JZ      ??SmartHomeApp_ProcessEvent_3
        MOVX    A,@DPTR
        XRL     A,#0x6
        JNZ     ??SmartHomeApp_ProcessEvent_4
//  436           {
//  437             
//  438             uint16 shortAddr = NLME_GetShortAddr();
??SmartHomeApp_ProcessEvent_3:
        ; Setup parameters for call to function NLME_GetShortAddr
        LCALL   ??NLME_GetShortAddr?relay
        MOV     ?V0 + 2,R2
        MOV     ?V0 + 3,R3
//  439             uint16 parentShortAddr = NLME_GetCoordShortAddr();
//  440             
//  441             printf("Addr=%04X, ParentAddr=%04X\n", shortAddr, parentShortAddr);
        ; Setup parameters for call to function printf
        ; Setup parameters for call to function NLME_GetCoordShortAddr
        LCALL   ??NLME_GetCoordShortAddr?relay
        MOV     ?V0 + 4,R2
        MOV     ?V0 + 5,R3
        MOV     R0,#?V0 + 4
        LCALL   ?PUSH_XSTACK_I_TWO
        CFI CFA_XSP16 add(XSP16, 16)
        MOV     R0,#?V0 + 2
        LCALL   ?PUSH_XSTACK_I_TWO
        CFI CFA_XSP16 add(XSP16, 18)
        MOV     R2,#`?<Constant "Addr=%04X, ParentAddr...">` & 0xff
        MOV     R3,#(`?<Constant "Addr=%04X, ParentAddr...">` >> 8) & 0xff
        LCALL   ??printf?relay
        MOV     A,#0x4
        LCALL   ?DEALLOC_XSTACK8
        CFI CFA_XSP16 add(XSP16, 14)
//  442             
//  443 //            printf("BV(4) = %X, BV(5) = %X, BV(6) = %X\n", BV(4), BV(5), BV(6));
//  444 //            printf("P0_4 = %X, P0_5 = %X, P0_6 = %X\n", P0_4, P0_5, P0_6);
//  445 //            
//  446             // Start sending "the" message in a regular interval.
//  447 //            osal_start_timerEx( SmartHomeApp_TaskID,
//  448 //                                SmartHomeApp_SEND_MSG_EVT,
//  449 //                                SmartHomeApp_SEND_MSG_TIMEOUT );
//  450             
//  451             osal_start_timerEx( SmartHomeApp_TaskID,
//  452                         SmartHomeApp_TIMER_UPDATE_EVT,
//  453                         1000 );
        ; Setup parameters for call to function osal_start_timerEx
        MOV     R4,#-0x18
        MOV     R5,#0x3
        MOV     R2,#0x2
        MOV     R3,#0x0
        MOV     DPTR,#SmartHomeApp_TaskID
        MOVX    A,@DPTR
        MOV     R1,A
        LCALL   ??osal_start_timerEx?relay
//  454           }
//  455           break;
//  456 
//  457         default:
//  458           break;
//  459       }
//  460 
//  461       // Release the memory
//  462       osal_msg_deallocate( (uint8 *)MSGpkt );
??SmartHomeApp_ProcessEvent_4:
        ; Setup parameters for call to function osal_msg_deallocate
        MOV     R2,?V0 + 0
        MOV     R3,?V0 + 1
        LCALL   ??osal_msg_deallocate?relay
//  463 
//  464       // Next
//  465       MSGpkt = (afIncomingMSGPacket_t *)osal_msg_receive( SmartHomeApp_TaskID );
        ; Setup parameters for call to function osal_msg_receive
??SmartHomeApp_ProcessEvent_1:
        MOV     DPTR,#SmartHomeApp_TaskID
        MOVX    A,@DPTR
        MOV     R1,A
        LCALL   ??osal_msg_receive?relay
        MOV     ?V0 + 0,R2
        MOV     ?V0 + 1,R3
        MOV     A,?V0 + 0
        ORL     A,?V0 + 1
        JNZ     $+5
        LJMP    ??SmartHomeApp_ProcessEvent_5 & 0xFFFF
        MOV     DPL,?V0 + 0
        MOV     DPH,?V0 + 1
        MOVX    A,@DPTR
        ADD     A,#-0x1a
        JNZ     $+5
        LJMP    ??SmartHomeApp_ProcessEvent_6 & 0xFFFF
        ADD     A,#0x5a
        JNZ     $+5
        LJMP    ??SmartHomeApp_ProcessEvent_7 & 0xFFFF
        ADD     A,#-0x11
        JZ      ??SmartHomeApp_ProcessEvent_2
        ADD     A,#-0x2
        JZ      ??SmartHomeApp_ProcessEvent_8
        ADD     A,#-0x2a
        JNZ     $+5
        LJMP    ??SmartHomeApp_ProcessEvent_9 & 0xFFFF
        SJMP    ??SmartHomeApp_ProcessEvent_4
??SmartHomeApp_ProcessEvent_8:
        MOV     A,?V0 + 0
        ADD     A,#0xc
        MOV     DPL,A
        MOV     A,?V0 + 1
        LCALL   ??Subroutine16_0 & 0xFFFF
??CrossCallReturnLabel_45:
        MOV     ?V0 + 2,A
        INC     DPTR
        MOVX    A,@DPTR
        MOV     ?V0 + 3,A
        MOV     R0,#?V0 + 2
        LCALL   ?US_SWITCH_SPARSE
`?<Jumptable for SmartHomeApp_ProcessEvent>_0`:
        DATA
        DATA16
        DATA
        DATA16
        DATA
        DATA16
        DW        0
        DATA
        DATA16
        DATA
        DATA16
        DATA
        DATA16
        DW        2
        DATA
        DATA16
        DATA
        DATA16
        DATA
        DATA16
        DW        32774
        DATA
        DATA16
        DATA
        DATA16
        DATA
        DATA16
        DW        ??SmartHomeApp_ProcessEvent_10
        DATA
        DATA16
        DATA
        DATA16
        DATA
        DATA16
        DW        32800
        DATA
        DATA16
        DATA
        DATA16
        DATA
        DATA16
        DW        ??SmartHomeApp_ProcessEvent_11
        DATA
        DATA16
        DATA
        DATA16
        DW        ??SmartHomeApp_ProcessEvent_4
        CODE
??SmartHomeApp_ProcessEvent_10:
        ; Setup parameters for call to function ZDO_ParseEPListRsp
        MOV     R2,?V0 + 0
        MOV     R3,?V0 + 1
        LCALL   ??ZDO_ParseEPListRsp?relay
        MOV     ?V0 + 2,R2
        MOV     ?V0 + 3,R3
        MOV     A,R2
        ORL     A,?V0 + 3
        JZ      ??SmartHomeApp_ProcessEvent_4
        MOV     DPL,R2
        MOV     DPH,R3
        MOVX    A,@DPTR
        JNZ     ??SmartHomeApp_ProcessEvent_12
        INC     DPTR
        INC     DPTR
        INC     DPTR
        MOVX    A,@DPTR
        JZ      ??SmartHomeApp_ProcessEvent_12
        MOV     DPTR,#SmartHomeApp_DstAddr + 8
        MOV     A,#0x2
        MOVX    @DPTR,A
        MOV     DPL,R2
        MOV     DPH,R3
        LCALL   ?Subroutine12 & 0xFFFF
??CrossCallReturnLabel_35:
        LCALL   ?Subroutine5 & 0xFFFF
??CrossCallReturnLabel_21:
        MOVX    A,@DPTR
        MOV     DPTR,#SmartHomeApp_DstAddr + 9
        MOVX    @DPTR,A
        ; Setup parameters for call to function HalLedSet
        MOV     R2,#0x1
        MOV     R1,#0x8
        LCALL   ??HalLedSet?relay
??SmartHomeApp_ProcessEvent_12:
        ; Setup parameters for call to function osal_mem_free
        MOV     R2,?V0 + 2
        MOV     R3,?V0 + 3
        LCALL   ??osal_mem_free?relay
        LJMP    ??SmartHomeApp_ProcessEvent_4 & 0xFFFF
??SmartHomeApp_ProcessEvent_11:
        MOV     A,?V0 + 0
        ADD     A,#0x13
        MOV     DPL,A
        MOV     A,?V0 + 1
        ADDC    A,#0x0
        MOV     DPH,A
        LCALL   ?Subroutine7 & 0xFFFF
??CrossCallReturnLabel_23:
        MOVX    A,@DPTR
        JNZ     ??SmartHomeApp_ProcessEvent_13
        ; Setup parameters for call to function HalLedSet
        MOV     R2,#0x1
??SmartHomeApp_ProcessEvent_14:
        MOV     R1,#0x8
        LCALL   ??HalLedSet?relay
        LJMP    ??SmartHomeApp_ProcessEvent_4 & 0xFFFF
??SmartHomeApp_ProcessEvent_13:
        ; Setup parameters for call to function HalLedSet
        MOV     R2,#0x4
        SJMP    ??SmartHomeApp_ProcessEvent_14
??SmartHomeApp_ProcessEvent_7:
        ; Setup parameters for indirect call
        INC     DPTR
        INC     DPTR
        INC     DPTR
        MOVX    A,@DPTR
        MOV     R1,A
        MOV     DPTR,#Processor_HandleKeys
        LCALL   ?Subroutine7 & 0xFFFF
??CrossCallReturnLabel_24:
        LCALL   ?CALL_IND
        LJMP    ??SmartHomeApp_ProcessEvent_4 & 0xFFFF
??SmartHomeApp_ProcessEvent_9:
        INC     DPTR
        INC     DPTR
        INC     DPTR
        MOVX    A,@DPTR
        MOV     ?V0 + 4,A
        MOV     DPL,?V0 + 0
        MOV     DPH,?V0 + 1
        INC     DPTR
        MOVX    A,@DPTR
        MOV     ?V0 + 2,?V0 + 4
        MOV     ?V0 + 3,#0x0
        MOV     R0,#?V0 + 2
        JZ      ??SmartHomeApp_ProcessEvent_15
        ; Setup parameters for call to function printf
        LCALL   ?PUSH_XSTACK_I_TWO
        CFI CFA_XSP16 add(XSP16, 16)
        MOV     R2,#`?<Constant "SendMsgFailed:%X\\n">` & 0xff
        MOV     R3,#(`?<Constant "SendMsgFailed:%X\\n">` >> 8) & 0xff
        LCALL   ?Subroutine3 & 0xFFFF
??CrossCallReturnLabel_10:
        LCALL   ?DEALLOC_XSTACK8
        CFI CFA_XSP16 add(XSP16, 14)
        MOV     DPTR,#SmartHomeApp_LastSendTransID
        MOVX    A,@DPTR
        XRL     A,?V0 + 4
        JNZ     ??SmartHomeApp_ProcessEvent_16
        INC     DPTR
        MOVX    A,@DPTR
??SmartHomeApp_ProcessEvent_16:
        JZ      $+5
        LJMP    ??SmartHomeApp_ProcessEvent_4 & 0xFFFF
        ; Setup parameters for call to function NameAddrCache_delete
        MOV     DPTR,#SmartHomeApp_LastSendAddr
        MOVX    A,@DPTR
        MOV     R2,A
        INC     DPTR
        MOVX    A,@DPTR
        MOV     R3,A
        LCALL   ??NameAddrCache_delete?relay
        LJMP    ??SmartHomeApp_ProcessEvent_4 & 0xFFFF
??SmartHomeApp_ProcessEvent_15:
        ; Setup parameters for call to function printf
        LCALL   ?PUSH_XSTACK_I_TWO
        CFI CFA_XSP16 add(XSP16, 16)
        MOV     R2,#`?<Constant "SendMsgOK:%X\\n">` & 0xff
        MOV     R3,#(`?<Constant "SendMsgOK:%X\\n">` >> 8) & 0xff
        LCALL   ?Subroutine3 & 0xFFFF
??CrossCallReturnLabel_11:
        LCALL   ?DEALLOC_XSTACK8
        CFI CFA_XSP16 add(XSP16, 14)
        LJMP    ??SmartHomeApp_ProcessEvent_4 & 0xFFFF
??SmartHomeApp_ProcessEvent_6:
        ; Setup parameters for call to function SmartHomeApp_MessageMSGCB
        MOV     R2,?V0 + 0
        MOV     R3,?V0 + 1
        LCALL   ??SmartHomeApp_MessageMSGCB?relay
        LJMP    ??SmartHomeApp_ProcessEvent_4 & 0xFFFF
//  466     }
//  467 
//  468     // return unprocessed events
//  469     return (events ^ SYS_EVENT_MSG);
??SmartHomeApp_ProcessEvent_5:
        MOV     A,R6
        MOV     R2,A
        MOV     A,R7
        XRL     A,#0x80
??SmartHomeApp_ProcessEvent_17:
        MOV     R3,A
        SJMP    ??SmartHomeApp_ProcessEvent_18
//  470   }
//  471 
//  472   // Send a message out - This event is generated by a timer
//  473   //  (setup in SmartHomeApp_Init()).
//  474 //  if ( events & SmartHomeApp_SEND_MSG_EVT )
//  475 //  {
//  476 //    // Send "the" message
//  477 //    SmartHomeApp_SendTheMessage();
//  478 //
//  479 //    // Setup to send message again
//  480 //    osal_start_timerEx( SmartHomeApp_TaskID,
//  481 //                        SmartHomeApp_SEND_MSG_EVT,
//  482 //                        SmartHomeApp_SEND_MSG_TIMEOUT );
//  483 //
//  484 //    // return unprocessed events
//  485 //    return (events ^ SmartHomeApp_SEND_MSG_EVT);
//  486 //  }
//  487 
//  488   if ( events & SmartHomeApp_TIMER_UPDATE_EVT )
??SmartHomeApp_ProcessEvent_0:
        MOV     A,R6
        ANL     A,#0x2
        JZ      ??SmartHomeApp_ProcessEvent_19
//  489   {
//  490     
//  491     Processor_Update();
        ; Setup parameters for indirect call
        MOV     DPTR,#Processor_Update
        LCALL   ?Subroutine7 & 0xFFFF
??CrossCallReturnLabel_25:
        LCALL   ?CALL_IND
//  492     // Setup to send message again
//  493     osal_start_timerEx( SmartHomeApp_TaskID,
//  494                         SmartHomeApp_TIMER_UPDATE_EVT,
//  495                         1000 );
        ; Setup parameters for call to function osal_start_timerEx
        MOV     R4,#-0x18
        MOV     R5,#0x3
        MOV     R2,#0x2
        MOV     R3,#0x0
        MOV     DPTR,#SmartHomeApp_TaskID
        MOVX    A,@DPTR
        MOV     R1,A
        LCALL   ??osal_start_timerEx?relay
//  496 
//  497     // return unprocessed events
//  498     return (events ^ SmartHomeApp_TIMER_UPDATE_EVT);
        MOV     A,R6
        XRL     A,#0x2
        MOV     R2,A
        MOV     A,R7
        SJMP    ??SmartHomeApp_ProcessEvent_17
//  499   }
//  500   
//  501 
//  502   // Discard unknown events
//  503   return 0;
??SmartHomeApp_ProcessEvent_19:
        MOV     R2,#0x0
        MOV     R3,#0x0
        CFI EndBlock cfiBlock14
??SmartHomeApp_ProcessEvent_18:
        REQUIRE ?Subroutine1
        ; // Fall through to label ?Subroutine1
//  504 }

        RSEG BANKED_CODE:CODE:NOROOT(0)
?Subroutine1:
        CFI Block cfiBlock15 Using cfiCommon0
        CFI NoFunction
        CFI CFA_SP SP+0
        CFI CFA_XSP16 add(XSP16, 14)
        CFI VB load(1, XDATA, add(CFA_XSP16, literal(-13)))
        CFI DPL0 load(1, XDATA, add(CFA_XSP16, literal(-2)))
        CFI DPH0 load(1, XDATA, add(CFA_XSP16, literal(-1)))
        CFI R6 load(1, XDATA, add(CFA_XSP16, literal(-14)))
        CFI R7 load(1, XDATA, add(CFA_XSP16, literal(-6)))
        CFI V0 load(1, XDATA, add(CFA_XSP16, literal(-12)))
        CFI V1 load(1, XDATA, add(CFA_XSP16, literal(-11)))
        CFI V2 load(1, XDATA, add(CFA_XSP16, literal(-10)))
        CFI V3 load(1, XDATA, add(CFA_XSP16, literal(-9)))
        CFI V4 load(1, XDATA, add(CFA_XSP16, literal(-8)))
        CFI V5 load(1, XDATA, add(CFA_XSP16, literal(-7)))
        CFI ?BRET_EXT load(1, XDATA, add(CFA_XSP16, literal(-3)))
        CFI ?RET_HIGH load(1, XDATA, add(CFA_XSP16, literal(-4)))
        CFI ?RET_LOW load(1, XDATA, add(CFA_XSP16, literal(-5)))
        MOV     R7,#0x6
        LJMP    ?BANKED_LEAVE_XDATA
        CFI EndBlock cfiBlock15

        RSEG BANKED_CODE:CODE:NOROOT(0)
?Subroutine7:
        CFI Block cfiCond16 Using cfiCommon0
        CFI NoFunction
        CFI Conditional ??CrossCallReturnLabel_22
        CFI R6 load(1, XDATA, add(CFA_XSP16, literal(-10)))
        CFI VB load(1, XDATA, add(CFA_XSP16, literal(-9)))
        CFI V0 load(1, XDATA, add(CFA_XSP16, literal(-8)))
        CFI V1 load(1, XDATA, add(CFA_XSP16, literal(-7)))
        CFI R7 load(1, XDATA, add(CFA_XSP16, literal(-6)))
        CFI ?RET_LOW load(1, XDATA, add(CFA_XSP16, literal(-5)))
        CFI ?RET_HIGH load(1, XDATA, add(CFA_XSP16, literal(-4)))
        CFI ?BRET_EXT load(1, XDATA, add(CFA_XSP16, literal(-3)))
        CFI DPL0 load(1, XDATA, add(CFA_XSP16, literal(-2)))
        CFI DPH0 load(1, XDATA, add(CFA_XSP16, literal(-1)))
        CFI CFA_SP SP+0
        CFI CFA_XSP16 add(XSP16, 39)
        CFI Block cfiCond17 Using cfiCommon0
        CFI (cfiCond17) NoFunction
        CFI (cfiCond17) Conditional ??CrossCallReturnLabel_23
        CFI (cfiCond17) R6 load(1, XDATA, add(CFA_XSP16, literal(-14)))
        CFI (cfiCond17) VB load(1, XDATA, add(CFA_XSP16, literal(-13)))
        CFI (cfiCond17) V0 load(1, XDATA, add(CFA_XSP16, literal(-12)))
        CFI (cfiCond17) V1 load(1, XDATA, add(CFA_XSP16, literal(-11)))
        CFI (cfiCond17) V2 load(1, XDATA, add(CFA_XSP16, literal(-10)))
        CFI (cfiCond17) V3 load(1, XDATA, add(CFA_XSP16, literal(-9)))
        CFI (cfiCond17) V4 load(1, XDATA, add(CFA_XSP16, literal(-8)))
        CFI (cfiCond17) V5 load(1, XDATA, add(CFA_XSP16, literal(-7)))
        CFI (cfiCond17) R7 load(1, XDATA, add(CFA_XSP16, literal(-6)))
        CFI (cfiCond17) ?RET_LOW load(1, XDATA, add(CFA_XSP16, literal(-5)))
        CFI (cfiCond17) ?RET_HIGH load(1, XDATA, add(CFA_XSP16, literal(-4)))
        CFI (cfiCond17) ?BRET_EXT load(1, XDATA, add(CFA_XSP16, literal(-3)))
        CFI (cfiCond17) DPL0 load(1, XDATA, add(CFA_XSP16, literal(-2)))
        CFI (cfiCond17) DPH0 load(1, XDATA, add(CFA_XSP16, literal(-1)))
        CFI (cfiCond17) CFA_SP SP+0
        CFI (cfiCond17) CFA_XSP16 add(XSP16, 14)
        CFI Block cfiCond18 Using cfiCommon0
        CFI (cfiCond18) NoFunction
        CFI (cfiCond18) Conditional ??CrossCallReturnLabel_24
        CFI (cfiCond18) R6 load(1, XDATA, add(CFA_XSP16, literal(-14)))
        CFI (cfiCond18) VB load(1, XDATA, add(CFA_XSP16, literal(-13)))
        CFI (cfiCond18) V0 load(1, XDATA, add(CFA_XSP16, literal(-12)))
        CFI (cfiCond18) V1 load(1, XDATA, add(CFA_XSP16, literal(-11)))
        CFI (cfiCond18) V2 load(1, XDATA, add(CFA_XSP16, literal(-10)))
        CFI (cfiCond18) V3 load(1, XDATA, add(CFA_XSP16, literal(-9)))
        CFI (cfiCond18) V4 load(1, XDATA, add(CFA_XSP16, literal(-8)))
        CFI (cfiCond18) V5 load(1, XDATA, add(CFA_XSP16, literal(-7)))
        CFI (cfiCond18) R7 load(1, XDATA, add(CFA_XSP16, literal(-6)))
        CFI (cfiCond18) ?RET_LOW load(1, XDATA, add(CFA_XSP16, literal(-5)))
        CFI (cfiCond18) ?RET_HIGH load(1, XDATA, add(CFA_XSP16, literal(-4)))
        CFI (cfiCond18) ?BRET_EXT load(1, XDATA, add(CFA_XSP16, literal(-3)))
        CFI (cfiCond18) DPL0 load(1, XDATA, add(CFA_XSP16, literal(-2)))
        CFI (cfiCond18) DPH0 load(1, XDATA, add(CFA_XSP16, literal(-1)))
        CFI (cfiCond18) CFA_SP SP+0
        CFI (cfiCond18) CFA_XSP16 add(XSP16, 14)
        CFI Block cfiCond19 Using cfiCommon0
        CFI (cfiCond19) NoFunction
        CFI (cfiCond19) Conditional ??CrossCallReturnLabel_25
        CFI (cfiCond19) R6 load(1, XDATA, add(CFA_XSP16, literal(-14)))
        CFI (cfiCond19) VB load(1, XDATA, add(CFA_XSP16, literal(-13)))
        CFI (cfiCond19) V0 load(1, XDATA, add(CFA_XSP16, literal(-12)))
        CFI (cfiCond19) V1 load(1, XDATA, add(CFA_XSP16, literal(-11)))
        CFI (cfiCond19) V2 load(1, XDATA, add(CFA_XSP16, literal(-10)))
        CFI (cfiCond19) V3 load(1, XDATA, add(CFA_XSP16, literal(-9)))
        CFI (cfiCond19) V4 load(1, XDATA, add(CFA_XSP16, literal(-8)))
        CFI (cfiCond19) V5 load(1, XDATA, add(CFA_XSP16, literal(-7)))
        CFI (cfiCond19) R7 load(1, XDATA, add(CFA_XSP16, literal(-6)))
        CFI (cfiCond19) ?RET_LOW load(1, XDATA, add(CFA_XSP16, literal(-5)))
        CFI (cfiCond19) ?RET_HIGH load(1, XDATA, add(CFA_XSP16, literal(-4)))
        CFI (cfiCond19) ?BRET_EXT load(1, XDATA, add(CFA_XSP16, literal(-3)))
        CFI (cfiCond19) DPL0 load(1, XDATA, add(CFA_XSP16, literal(-2)))
        CFI (cfiCond19) DPH0 load(1, XDATA, add(CFA_XSP16, literal(-1)))
        CFI (cfiCond19) CFA_SP SP+0
        CFI (cfiCond19) CFA_XSP16 add(XSP16, 14)
        CFI Block cfiCond20 Using cfiCommon0
        CFI (cfiCond20) NoFunction
        CFI (cfiCond20) Conditional ??CrossCallReturnLabel_26
        CFI (cfiCond20) R6 load(1, XDATA, add(CFA_XSP16, literal(-12)))
        CFI (cfiCond20) VB load(1, XDATA, add(CFA_XSP16, literal(-11)))
        CFI (cfiCond20) V0 load(1, XDATA, add(CFA_XSP16, literal(-10)))
        CFI (cfiCond20) V1 load(1, XDATA, add(CFA_XSP16, literal(-9)))
        CFI (cfiCond20) V2 load(1, XDATA, add(CFA_XSP16, literal(-8)))
        CFI (cfiCond20) V3 load(1, XDATA, add(CFA_XSP16, literal(-7)))
        CFI (cfiCond20) R7 load(1, XDATA, add(CFA_XSP16, literal(-6)))
        CFI (cfiCond20) ?RET_LOW load(1, XDATA, add(CFA_XSP16, literal(-5)))
        CFI (cfiCond20) ?RET_HIGH load(1, XDATA, add(CFA_XSP16, literal(-4)))
        CFI (cfiCond20) ?BRET_EXT load(1, XDATA, add(CFA_XSP16, literal(-3)))
        CFI (cfiCond20) DPL0 load(1, XDATA, add(CFA_XSP16, literal(-2)))
        CFI (cfiCond20) DPH0 load(1, XDATA, add(CFA_XSP16, literal(-1)))
        CFI (cfiCond20) CFA_SP SP+0
        CFI (cfiCond20) CFA_XSP16 add(XSP16, 12)
        CFI Block cfiPicker21 Using cfiCommon1
        CFI (cfiPicker21) NoFunction
        CFI (cfiPicker21) Picker
        MOVX    A,@DPTR
        MOV     R0,A
        INC     DPTR
        MOVX    A,@DPTR
        MOV     DPH,A
        MOV     DPL,R0
        RET
        CFI EndBlock cfiCond16
        CFI EndBlock cfiCond17
        CFI EndBlock cfiCond18
        CFI EndBlock cfiCond19
        CFI EndBlock cfiCond20
        CFI EndBlock cfiPicker21
//  505 
//  506 /*********************************************************************
//  507  * Event Generation Functions
//  508  */
//  509 
//  510 /*********************************************************************
//  511  * @fn      SmartHomeApp_ProcessZDOMsgs()
//  512  *
//  513  * @brief   Process response messages
//  514  *
//  515  * @param   none
//  516  *
//  517  * @return  none
//  518  */
//  519 static void SmartHomeApp_ProcessZDOMsgs( zdoIncomingMsg_t *inMsg )
//  520 {
//  521   switch ( inMsg->clusterID )
//  522   {
//  523     case End_Device_Bind_rsp:
//  524       if ( ZDO_ParseBindRsp( inMsg ) == ZSuccess )
//  525       {
//  526         // Light LED
//  527         HalLedSet( HAL_LED_4, HAL_LED_MODE_ON );
//  528       }
//  529 #if defined( BLINK_LEDS )
//  530       else
//  531       {
//  532         // Flash LED to show failure
//  533         HalLedSet ( HAL_LED_4, HAL_LED_MODE_FLASH );
//  534       }
//  535 #endif
//  536       break;
//  537 
//  538     case Match_Desc_rsp:
//  539       {
//  540         ZDO_ActiveEndpointRsp_t *pRsp = ZDO_ParseEPListRsp( inMsg );
//  541         if ( pRsp )
//  542         {
//  543           if ( pRsp->status == ZSuccess && pRsp->cnt )
//  544           {
//  545             SmartHomeApp_DstAddr.addrMode = (afAddrMode_t)Addr16Bit;
//  546             SmartHomeApp_DstAddr.addr.shortAddr = pRsp->nwkAddr;
//  547             // Take the first endpoint, Can be changed to search through endpoints
//  548             SmartHomeApp_DstAddr.endPoint = pRsp->epList[0];
//  549 
//  550             // Light LED
//  551             HalLedSet( HAL_LED_4, HAL_LED_MODE_ON );
//  552           }
//  553           osal_mem_free( pRsp );
//  554         }
//  555       }
//  556       break;
//  557   }
//  558 }
//  559 
//  560 /*********************************************************************
//  561  * @fn      SmartHomeApp_HandleKeys
//  562  *
//  563  * @brief   Handles all key events for this device.
//  564  *
//  565  * @param   shift - true if in shift/alt.
//  566  * @param   keys - bit field for key events. Valid entries:
//  567  *                 HAL_KEY_SW_4
//  568  *                 HAL_KEY_SW_3
//  569  *                 HAL_KEY_SW_2
//  570  *                 HAL_KEY_SW_1
//  571  *
//  572  * @return  none
//  573  */
//  574 static void SmartHomeApp_HandleKeys( uint8 shift, uint8 keys )
//  575 {
//  576 //  zAddrType_t dstAddr;
//  577   
//  578   Processor_HandleKeys(keys);
//  579 
//  580 //  // Shift is used to make each button/switch dual purpose.
//  581 //  if ( shift )
//  582 //  {
//  583 //    if ( keys & HAL_KEY_SW_1 )
//  584 //    {
//  585 //    }
//  586 //    if ( keys & HAL_KEY_SW_2 )
//  587 //    {
//  588 //    }
//  589 //    if ( keys & HAL_KEY_SW_3 )
//  590 //    {
//  591 //    }
//  592 //    if ( keys & HAL_KEY_SW_4 )
//  593 //    {
//  594 //    }
//  595 //  }
//  596 //  else
//  597 //  {
//  598 //    if ( keys & HAL_KEY_SW_1 )
//  599 //    {
//  600 //      // Since SW1 isn't used for anything else in this application...
//  601 //#if defined( SWITCH1_BIND )
//  602 //      // we can use SW1 to simulate SW2 for devices that only have one switch,
//  603 //      keys |= HAL_KEY_SW_2;
//  604 //#elif defined( SWITCH1_MATCH )
//  605 //      // or use SW1 to simulate SW4 for devices that only have one switch
//  606 //      keys |= HAL_KEY_SW_4;
//  607 //#endif
//  608 //    }
//  609 //
//  610 //    if ( keys & HAL_KEY_SW_2 )
//  611 //    {
//  612 //      HalLedSet ( HAL_LED_4, HAL_LED_MODE_OFF );
//  613 //
//  614 //      // Initiate an End Device Bind Request for the mandatory endpoint
//  615 //      dstAddr.addrMode = Addr16Bit;
//  616 //      dstAddr.addr.shortAddr = 0x0000; // Coordinator
//  617 //      ZDP_EndDeviceBindReq( &dstAddr, NLME_GetShortAddr(),
//  618 //                            SmartHomeApp_epDesc.endPoint,
//  619 //                            SmartHomeApp_PROFID,
//  620 //                            SmartHomeApp_MAX_CLUSTERS, (cId_t *)SmartHomeApp_ClusterList,
//  621 //                            SmartHomeApp_MAX_CLUSTERS, (cId_t *)SmartHomeApp_ClusterList,
//  622 //                            FALSE );
//  623 //    }
//  624 //
//  625 //    if ( keys & HAL_KEY_SW_3 )
//  626 //    {
//  627 //    }
//  628 //
//  629 //    if ( keys & HAL_KEY_SW_4 )
//  630 //    {
//  631 //      HalLedSet ( HAL_LED_4, HAL_LED_MODE_OFF );
//  632 //      // Initiate a Match Description Request (Service Discovery)
//  633 //      dstAddr.addrMode = AddrBroadcast;
//  634 //      dstAddr.addr.shortAddr = NWK_BROADCAST_SHORTADDR;
//  635 //      ZDP_MatchDescReq( &dstAddr, NWK_BROADCAST_SHORTADDR,
//  636 //                        SmartHomeApp_PROFID,
//  637 //                        SmartHomeApp_MAX_CLUSTERS, (cId_t *)SmartHomeApp_ClusterList,
//  638 //                        SmartHomeApp_MAX_CLUSTERS, (cId_t *)SmartHomeApp_ClusterList,
//  639 //                        FALSE );
//  640 //    }
//  641 //  }
//  642 }
//  643 
//  644 /*********************************************************************
//  645  * LOCAL FUNCTIONS
//  646  */
//  647 

        RSEG BANKED_CODE:CODE:NOROOT(0)
//  648 static void SmartHomeApp_ProcessReportNames(afIncomingMSGPacket_t *inMsg)
SmartHomeApp_ProcessReportNames:
        CFI Block cfiBlock22 Using cfiCommon0
        CFI Function SmartHomeApp_ProcessReportNames
        CODE
//  649 {
        FUNCALL SmartHomeApp_ProcessReportNames, NLME_GetShortAddr
        LOCFRAME ISTACK, 0, STACK
        LOCFRAME PSTACK, 0, STACK
        LOCFRAME XSTACK, 62, STACK
        LOCFRAME IOVERLAY, 0, STATIC
        LOCFRAME DOVERLAY, 0, STATIC
        ARGFRAME ISTACK, 0, STACK
        ARGFRAME PSTACK, 0, STACK
        ARGFRAME XSTACK, 62, STACK
        ARGFRAME IOVERLAY, 0, STATIC
        ARGFRAME DOVERLAY, 0, STATIC
        FUNCALL SmartHomeApp_ProcessReportNames, NLME_GetCoordShortAddr
        LOCFRAME ISTACK, 0, STACK
        LOCFRAME PSTACK, 0, STACK
        LOCFRAME XSTACK, 62, STACK
        LOCFRAME IOVERLAY, 0, STATIC
        LOCFRAME DOVERLAY, 0, STATIC
        ARGFRAME ISTACK, 0, STACK
        ARGFRAME PSTACK, 0, STACK
        ARGFRAME XSTACK, 62, STACK
        ARGFRAME IOVERLAY, 0, STATIC
        ARGFRAME DOVERLAY, 0, STATIC
        FUNCALL SmartHomeApp_ProcessReportNames, Util_ReadName
        LOCFRAME ISTACK, 0, STACK
        LOCFRAME PSTACK, 0, STACK
        LOCFRAME XSTACK, 66, STACK
        LOCFRAME IOVERLAY, 0, STATIC
        LOCFRAME DOVERLAY, 0, STATIC
        ARGFRAME ISTACK, 0, STACK
        ARGFRAME PSTACK, 0, STACK
        ARGFRAME XSTACK, 66, STACK
        ARGFRAME IOVERLAY, 0, STATIC
        ARGFRAME DOVERLAY, 0, STATIC
        FUNCALL SmartHomeApp_ProcessReportNames, sprintf
        LOCFRAME ISTACK, 0, STACK
        LOCFRAME PSTACK, 0, STACK
        LOCFRAME XSTACK, 68, STACK
        LOCFRAME IOVERLAY, 0, STATIC
        LOCFRAME DOVERLAY, 0, STATIC
        ARGFRAME ISTACK, 0, STACK
        ARGFRAME PSTACK, 0, STACK
        ARGFRAME XSTACK, 68, STACK
        ARGFRAME IOVERLAY, 0, STATIC
        ARGFRAME DOVERLAY, 0, STATIC
        FUNCALL SmartHomeApp_ProcessReportNames, osal_strlen
        LOCFRAME ISTACK, 0, STACK
        LOCFRAME PSTACK, 0, STACK
        LOCFRAME XSTACK, 67, STACK
        LOCFRAME IOVERLAY, 0, STATIC
        LOCFRAME DOVERLAY, 0, STATIC
        ARGFRAME ISTACK, 0, STACK
        ARGFRAME PSTACK, 0, STACK
        ARGFRAME XSTACK, 67, STACK
        ARGFRAME IOVERLAY, 0, STATIC
        ARGFRAME DOVERLAY, 0, STATIC
        FUNCALL SmartHomeApp_ProcessReportNames, AF_DataRequest
        LOCFRAME ISTACK, 0, STACK
        LOCFRAME PSTACK, 0, STACK
        LOCFRAME XSTACK, 71, STACK
        LOCFRAME IOVERLAY, 0, STATIC
        LOCFRAME DOVERLAY, 0, STATIC
        ARGFRAME ISTACK, 0, STACK
        ARGFRAME PSTACK, 0, STACK
        ARGFRAME XSTACK, 71, STACK
        ARGFRAME IOVERLAY, 0, STATIC
        ARGFRAME DOVERLAY, 0, STATIC
        FUNCALL SmartHomeApp_ProcessReportNames, printf
        LOCFRAME ISTACK, 0, STACK
        LOCFRAME PSTACK, 0, STACK
        LOCFRAME XSTACK, 64, STACK
        LOCFRAME IOVERLAY, 0, STATIC
        LOCFRAME DOVERLAY, 0, STATIC
        ARGFRAME ISTACK, 0, STACK
        ARGFRAME PSTACK, 0, STACK
        ARGFRAME XSTACK, 64, STACK
        ARGFRAME IOVERLAY, 0, STATIC
        ARGFRAME DOVERLAY, 0, STATIC
        MOV     A,#-0xe
        LCALL   ?BANKED_ENTER_XDATA
        CFI DPH0 load(1, XDATA, add(CFA_XSP16, literal(-1)))
        CFI DPL0 load(1, XDATA, add(CFA_XSP16, literal(-2)))
        CFI ?BRET_EXT load(1, XDATA, add(CFA_XSP16, literal(-3)))
        CFI ?RET_HIGH load(1, XDATA, add(CFA_XSP16, literal(-4)))
        CFI ?RET_LOW load(1, XDATA, add(CFA_XSP16, literal(-5)))
        CFI R7 load(1, XDATA, add(CFA_XSP16, literal(-6)))
        CFI V5 load(1, XDATA, add(CFA_XSP16, literal(-7)))
        CFI V4 load(1, XDATA, add(CFA_XSP16, literal(-8)))
        CFI V3 load(1, XDATA, add(CFA_XSP16, literal(-9)))
        CFI V2 load(1, XDATA, add(CFA_XSP16, literal(-10)))
        CFI V1 load(1, XDATA, add(CFA_XSP16, literal(-11)))
        CFI V0 load(1, XDATA, add(CFA_XSP16, literal(-12)))
        CFI VB load(1, XDATA, add(CFA_XSP16, literal(-13)))
        CFI R6 load(1, XDATA, add(CFA_XSP16, literal(-14)))
        CFI CFA_SP SP+0
        CFI CFA_XSP16 add(XSP16, 14)
        ; Saved register size: 14
        ; Auto size: 48
        MOV     A,#-0x30
        LCALL   ?ALLOC_XSTACK8
        CFI CFA_XSP16 add(XSP16, 62)
        MOV     A,R2
        MOV     R6,A
        MOV     A,R3
        MOV     R7,A
//  650   uint16 shortAddr = NLME_GetShortAddr();
        ; Setup parameters for call to function NLME_GetShortAddr
        LCALL   ??NLME_GetShortAddr?relay
        MOV     ?V0 + 0,R2
        MOV     ?V0 + 1,R3
//  651   uint16 parentShortAddr = NLME_GetCoordShortAddr();
        ; Setup parameters for call to function NLME_GetCoordShortAddr
        LCALL   ??NLME_GetCoordShortAddr?relay
        MOV     ?V0 + 2,R2
        MOV     ?V0 + 3,R3
//  652   char buf[48];
//  653   int len = sprintf(buf, "ReportNamesResp %s %04X %04X", Util_ReadName(), shortAddr, parentShortAddr);
        ; Setup parameters for call to function sprintf
        MOV     R0,#?V0 + 2
        LCALL   ?PUSH_XSTACK_I_TWO
        CFI CFA_XSP16 add(XSP16, 64)
        MOV     R0,#?V0 + 0
        LCALL   ?PUSH_XSTACK_I_TWO
        CFI CFA_XSP16 add(XSP16, 66)
        ; Setup parameters for call to function Util_ReadName
        LCALL   ?Subroutine2 & 0xFFFF
??CrossCallReturnLabel_4:
        LCALL   ?PUSH_XSTACK_I_TWO
        CFI CFA_XSP16 add(XSP16, 68)
        MOV     R4,#`?<Constant "ReportNamesResp %s %0...">` & 0xff
        MOV     R5,#(`?<Constant "ReportNamesResp %s %0...">` >> 8) & 0xff
        MOV     A,#0x6
        LCALL   ?XSTACK_DISP0_8
        MOV     R2,DPL
        MOV     R3,DPH
        LCALL   ??sprintf?relay
        MOV     A,#0x6
        LCALL   ?DEALLOC_XSTACK8
        CFI CFA_XSP16 add(XSP16, 62)
//  654   
//  655   SmartHomeApp_DstAddr.addrMode = (afAddrMode_t)Addr16Bit;
        MOV     DPTR,#SmartHomeApp_DstAddr + 8
        MOV     A,#0x2
        MOVX    @DPTR,A
//  656   SmartHomeApp_DstAddr.endPoint = SmartHomeApp_ENDPOINT;
        INC     DPTR
        MOV     A,#0xa
        MOVX    @DPTR,A
//  657   SmartHomeApp_DstAddr.addr.shortAddr = inMsg->srcAddr.addr.shortAddr;
        MOV     DPL,R6
        MOV     DPH,R7
        INC     DPTR
        INC     DPTR
        INC     DPTR
        INC     DPTR
        LCALL   ?Subroutine10 & 0xFFFF
//  658   
//  659     
//  660   if ( AF_DataRequest( &SmartHomeApp_DstAddr, &SmartHomeApp_epDesc,
//  661                        SmartHomeApp_CLUSTERID,
//  662                        osal_strlen(buf)+1,
//  663                        (uint8*)buf,
//  664                        &SmartHomeApp_TransID,
//  665                        AF_DISCV_ROUTE, AF_DEFAULT_RADIUS ) == afStatus_SUCCESS )
??CrossCallReturnLabel_33:
        ; Setup parameters for call to function AF_DataRequest
        MOV     ?V0 + 0,#0x1e
        MOV     R0,#?V0 + 0
        LCALL   ?PUSH_XSTACK_I_ONE
        CFI CFA_XSP16 add(XSP16, 63)
        MOV     ?V0 + 0,#SmartHomeApp_TransID & 0xff
        MOV     ?V0 + 1,#(SmartHomeApp_TransID >> 8) & 0xff
        MOV     R0,#?V0 + 0
        LCALL   ?PUSH_XSTACK_I_TWO
        CFI CFA_XSP16 add(XSP16, 65)
        MOV     A,#0x3
        LCALL   ?XSTACK_DISP0_8
        MOV     ?V0 + 0,DPL
        MOV     ?V0 + 1,DPH
        MOV     R0,#?V0 + 0
        LCALL   ?PUSH_XSTACK_I_TWO
        CFI CFA_XSP16 add(XSP16, 67)
        ; Setup parameters for call to function osal_strlen
        MOV     A,#0x5
        LCALL   ?XSTACK_DISP0_8
        LCALL   ?Subroutine9 & 0xFFFF
??CrossCallReturnLabel_31:
        LCALL   ?PUSH_XSTACK_I_TWO
        CFI CFA_XSP16 add(XSP16, 69)
        MOV     ?V0 + 0,#0x1
        MOV     ?V0 + 1,#0x0
        MOV     R0,#?V0 + 0
        LCALL   ?PUSH_XSTACK_I_TWO
        CFI CFA_XSP16 add(XSP16, 71)
        MOV     R1,#0x20
        MOV     R4,#SmartHomeApp_epDesc & 0xff
        MOV     R5,#(SmartHomeApp_epDesc >> 8) & 0xff
        MOV     R2,#SmartHomeApp_DstAddr & 0xff
        MOV     R3,#(SmartHomeApp_DstAddr >> 8) & 0xff
        LCALL   ??AF_DataRequest?relay
        MOV     A,#0x9
        LCALL   ?DEALLOC_XSTACK8
        CFI CFA_XSP16 add(XSP16, 62)
        MOV     A,R1
        JZ      ??SmartHomeApp_ProcessReportNames_0
//  666   {
//  667     // Successfully requested to be sent.
//  668   }
//  669   else
//  670   {
//  671     printf("send ReportNamesResp error %s\n", buf);
        ; Setup parameters for call to function printf
        MOV     DPL,?XSP + 0
        MOV     DPH,?XSP + 1
        MOV     ?V0 + 0,DPL
        MOV     ?V0 + 1,DPH
        MOV     R0,#?V0 + 0
        LCALL   ?PUSH_XSTACK_I_TWO
        CFI CFA_XSP16 add(XSP16, 64)
        MOV     R2,#`?<Constant "send ReportNamesResp ...">` & 0xff
        MOV     R3,#(`?<Constant "send ReportNamesResp ...">` >> 8) & 0xff
        LCALL   ?Subroutine3 & 0xFFFF
//  672   }
??CrossCallReturnLabel_12:
        LCALL   ?DEALLOC_XSTACK8
        CFI CFA_XSP16 add(XSP16, 62)
//  673   
//  674 }
??SmartHomeApp_ProcessReportNames_0:
        MOV     A,#0x30
        LCALL   ?DEALLOC_XSTACK8
        CFI CFA_XSP16 add(XSP16, 14)
        LJMP    ?Subroutine1 & 0xFFFF
        CFI EndBlock cfiBlock22

        RSEG BANKED_CODE:CODE:NOROOT(0)
?Subroutine3:
        CFI Block cfiCond23 Using cfiCommon0
        CFI NoFunction
        CFI Conditional ??CrossCallReturnLabel_6
        CFI R6 load(1, XDATA, add(CFA_XSP16, literal(-10)))
        CFI VB load(1, XDATA, add(CFA_XSP16, literal(-9)))
        CFI V0 load(1, XDATA, add(CFA_XSP16, literal(-8)))
        CFI V1 load(1, XDATA, add(CFA_XSP16, literal(-7)))
        CFI R7 load(1, XDATA, add(CFA_XSP16, literal(-6)))
        CFI ?RET_LOW load(1, XDATA, add(CFA_XSP16, literal(-5)))
        CFI ?RET_HIGH load(1, XDATA, add(CFA_XSP16, literal(-4)))
        CFI ?BRET_EXT load(1, XDATA, add(CFA_XSP16, literal(-3)))
        CFI DPL0 load(1, XDATA, add(CFA_XSP16, literal(-2)))
        CFI DPH0 load(1, XDATA, add(CFA_XSP16, literal(-1)))
        CFI CFA_SP SP+0
        CFI CFA_XSP16 add(XSP16, 41)
        CFI Block cfiCond24 Using cfiCommon0
        CFI (cfiCond24) NoFunction
        CFI (cfiCond24) Conditional ??CrossCallReturnLabel_7
        CFI (cfiCond24) R6 load(1, XDATA, add(CFA_XSP16, literal(-10)))
        CFI (cfiCond24) VB load(1, XDATA, add(CFA_XSP16, literal(-9)))
        CFI (cfiCond24) V0 load(1, XDATA, add(CFA_XSP16, literal(-8)))
        CFI (cfiCond24) V1 load(1, XDATA, add(CFA_XSP16, literal(-7)))
        CFI (cfiCond24) R7 load(1, XDATA, add(CFA_XSP16, literal(-6)))
        CFI (cfiCond24) ?RET_LOW load(1, XDATA, add(CFA_XSP16, literal(-5)))
        CFI (cfiCond24) ?RET_HIGH load(1, XDATA, add(CFA_XSP16, literal(-4)))
        CFI (cfiCond24) ?BRET_EXT load(1, XDATA, add(CFA_XSP16, literal(-3)))
        CFI (cfiCond24) DPL0 load(1, XDATA, add(CFA_XSP16, literal(-2)))
        CFI (cfiCond24) DPH0 load(1, XDATA, add(CFA_XSP16, literal(-1)))
        CFI (cfiCond24) CFA_SP SP+0
        CFI (cfiCond24) CFA_XSP16 add(XSP16, 41)
        CFI Block cfiCond25 Using cfiCommon0
        CFI (cfiCond25) NoFunction
        CFI (cfiCond25) Conditional ??CrossCallReturnLabel_8
        CFI (cfiCond25) R6 load(1, XDATA, add(CFA_XSP16, literal(-12)))
        CFI (cfiCond25) VB load(1, XDATA, add(CFA_XSP16, literal(-11)))
        CFI (cfiCond25) V0 load(1, XDATA, add(CFA_XSP16, literal(-10)))
        CFI (cfiCond25) V1 load(1, XDATA, add(CFA_XSP16, literal(-9)))
        CFI (cfiCond25) V2 load(1, XDATA, add(CFA_XSP16, literal(-8)))
        CFI (cfiCond25) V3 load(1, XDATA, add(CFA_XSP16, literal(-7)))
        CFI (cfiCond25) R7 load(1, XDATA, add(CFA_XSP16, literal(-6)))
        CFI (cfiCond25) ?RET_LOW load(1, XDATA, add(CFA_XSP16, literal(-5)))
        CFI (cfiCond25) ?RET_HIGH load(1, XDATA, add(CFA_XSP16, literal(-4)))
        CFI (cfiCond25) ?BRET_EXT load(1, XDATA, add(CFA_XSP16, literal(-3)))
        CFI (cfiCond25) DPL0 load(1, XDATA, add(CFA_XSP16, literal(-2)))
        CFI (cfiCond25) DPH0 load(1, XDATA, add(CFA_XSP16, literal(-1)))
        CFI (cfiCond25) CFA_SP SP+0
        CFI (cfiCond25) CFA_XSP16 add(XSP16, 14)
        CFI Block cfiCond26 Using cfiCommon0
        CFI (cfiCond26) NoFunction
        CFI (cfiCond26) Conditional ??CrossCallReturnLabel_9
        CFI (cfiCond26) R6 load(1, XDATA, add(CFA_XSP16, literal(-12)))
        CFI (cfiCond26) VB load(1, XDATA, add(CFA_XSP16, literal(-11)))
        CFI (cfiCond26) V0 load(1, XDATA, add(CFA_XSP16, literal(-10)))
        CFI (cfiCond26) V1 load(1, XDATA, add(CFA_XSP16, literal(-9)))
        CFI (cfiCond26) V2 load(1, XDATA, add(CFA_XSP16, literal(-8)))
        CFI (cfiCond26) V3 load(1, XDATA, add(CFA_XSP16, literal(-7)))
        CFI (cfiCond26) R7 load(1, XDATA, add(CFA_XSP16, literal(-6)))
        CFI (cfiCond26) ?RET_LOW load(1, XDATA, add(CFA_XSP16, literal(-5)))
        CFI (cfiCond26) ?RET_HIGH load(1, XDATA, add(CFA_XSP16, literal(-4)))
        CFI (cfiCond26) ?BRET_EXT load(1, XDATA, add(CFA_XSP16, literal(-3)))
        CFI (cfiCond26) DPL0 load(1, XDATA, add(CFA_XSP16, literal(-2)))
        CFI (cfiCond26) DPH0 load(1, XDATA, add(CFA_XSP16, literal(-1)))
        CFI (cfiCond26) CFA_SP SP+0
        CFI (cfiCond26) CFA_XSP16 add(XSP16, 14)
        CFI Block cfiCond27 Using cfiCommon0
        CFI (cfiCond27) NoFunction
        CFI (cfiCond27) Conditional ??CrossCallReturnLabel_10
        CFI (cfiCond27) R6 load(1, XDATA, add(CFA_XSP16, literal(-14)))
        CFI (cfiCond27) VB load(1, XDATA, add(CFA_XSP16, literal(-13)))
        CFI (cfiCond27) V0 load(1, XDATA, add(CFA_XSP16, literal(-12)))
        CFI (cfiCond27) V1 load(1, XDATA, add(CFA_XSP16, literal(-11)))
        CFI (cfiCond27) V2 load(1, XDATA, add(CFA_XSP16, literal(-10)))
        CFI (cfiCond27) V3 load(1, XDATA, add(CFA_XSP16, literal(-9)))
        CFI (cfiCond27) V4 load(1, XDATA, add(CFA_XSP16, literal(-8)))
        CFI (cfiCond27) V5 load(1, XDATA, add(CFA_XSP16, literal(-7)))
        CFI (cfiCond27) R7 load(1, XDATA, add(CFA_XSP16, literal(-6)))
        CFI (cfiCond27) ?RET_LOW load(1, XDATA, add(CFA_XSP16, literal(-5)))
        CFI (cfiCond27) ?RET_HIGH load(1, XDATA, add(CFA_XSP16, literal(-4)))
        CFI (cfiCond27) ?BRET_EXT load(1, XDATA, add(CFA_XSP16, literal(-3)))
        CFI (cfiCond27) DPL0 load(1, XDATA, add(CFA_XSP16, literal(-2)))
        CFI (cfiCond27) DPH0 load(1, XDATA, add(CFA_XSP16, literal(-1)))
        CFI (cfiCond27) CFA_SP SP+0
        CFI (cfiCond27) CFA_XSP16 add(XSP16, 16)
        CFI Block cfiCond28 Using cfiCommon0
        CFI (cfiCond28) NoFunction
        CFI (cfiCond28) Conditional ??CrossCallReturnLabel_11
        CFI (cfiCond28) R6 load(1, XDATA, add(CFA_XSP16, literal(-14)))
        CFI (cfiCond28) VB load(1, XDATA, add(CFA_XSP16, literal(-13)))
        CFI (cfiCond28) V0 load(1, XDATA, add(CFA_XSP16, literal(-12)))
        CFI (cfiCond28) V1 load(1, XDATA, add(CFA_XSP16, literal(-11)))
        CFI (cfiCond28) V2 load(1, XDATA, add(CFA_XSP16, literal(-10)))
        CFI (cfiCond28) V3 load(1, XDATA, add(CFA_XSP16, literal(-9)))
        CFI (cfiCond28) V4 load(1, XDATA, add(CFA_XSP16, literal(-8)))
        CFI (cfiCond28) V5 load(1, XDATA, add(CFA_XSP16, literal(-7)))
        CFI (cfiCond28) R7 load(1, XDATA, add(CFA_XSP16, literal(-6)))
        CFI (cfiCond28) ?RET_LOW load(1, XDATA, add(CFA_XSP16, literal(-5)))
        CFI (cfiCond28) ?RET_HIGH load(1, XDATA, add(CFA_XSP16, literal(-4)))
        CFI (cfiCond28) ?BRET_EXT load(1, XDATA, add(CFA_XSP16, literal(-3)))
        CFI (cfiCond28) DPL0 load(1, XDATA, add(CFA_XSP16, literal(-2)))
        CFI (cfiCond28) DPH0 load(1, XDATA, add(CFA_XSP16, literal(-1)))
        CFI (cfiCond28) CFA_SP SP+0
        CFI (cfiCond28) CFA_XSP16 add(XSP16, 16)
        CFI Block cfiCond29 Using cfiCommon0
        CFI (cfiCond29) NoFunction
        CFI (cfiCond29) Conditional ??CrossCallReturnLabel_12
        CFI (cfiCond29) R6 load(1, XDATA, add(CFA_XSP16, literal(-14)))
        CFI (cfiCond29) VB load(1, XDATA, add(CFA_XSP16, literal(-13)))
        CFI (cfiCond29) V0 load(1, XDATA, add(CFA_XSP16, literal(-12)))
        CFI (cfiCond29) V1 load(1, XDATA, add(CFA_XSP16, literal(-11)))
        CFI (cfiCond29) V2 load(1, XDATA, add(CFA_XSP16, literal(-10)))
        CFI (cfiCond29) V3 load(1, XDATA, add(CFA_XSP16, literal(-9)))
        CFI (cfiCond29) V4 load(1, XDATA, add(CFA_XSP16, literal(-8)))
        CFI (cfiCond29) V5 load(1, XDATA, add(CFA_XSP16, literal(-7)))
        CFI (cfiCond29) R7 load(1, XDATA, add(CFA_XSP16, literal(-6)))
        CFI (cfiCond29) ?RET_LOW load(1, XDATA, add(CFA_XSP16, literal(-5)))
        CFI (cfiCond29) ?RET_HIGH load(1, XDATA, add(CFA_XSP16, literal(-4)))
        CFI (cfiCond29) ?BRET_EXT load(1, XDATA, add(CFA_XSP16, literal(-3)))
        CFI (cfiCond29) DPL0 load(1, XDATA, add(CFA_XSP16, literal(-2)))
        CFI (cfiCond29) DPH0 load(1, XDATA, add(CFA_XSP16, literal(-1)))
        CFI (cfiCond29) CFA_SP SP+0
        CFI (cfiCond29) CFA_XSP16 add(XSP16, 64)
        CFI Block cfiCond30 Using cfiCommon0
        CFI (cfiCond30) NoFunction
        CFI (cfiCond30) Conditional ??CrossCallReturnLabel_13
        CFI (cfiCond30) R6 load(1, XDATA, add(CFA_XSP16, literal(-12)))
        CFI (cfiCond30) VB load(1, XDATA, add(CFA_XSP16, literal(-11)))
        CFI (cfiCond30) V0 load(1, XDATA, add(CFA_XSP16, literal(-10)))
        CFI (cfiCond30) V1 load(1, XDATA, add(CFA_XSP16, literal(-9)))
        CFI (cfiCond30) V2 load(1, XDATA, add(CFA_XSP16, literal(-8)))
        CFI (cfiCond30) V3 load(1, XDATA, add(CFA_XSP16, literal(-7)))
        CFI (cfiCond30) R7 load(1, XDATA, add(CFA_XSP16, literal(-6)))
        CFI (cfiCond30) ?RET_LOW load(1, XDATA, add(CFA_XSP16, literal(-5)))
        CFI (cfiCond30) ?RET_HIGH load(1, XDATA, add(CFA_XSP16, literal(-4)))
        CFI (cfiCond30) ?BRET_EXT load(1, XDATA, add(CFA_XSP16, literal(-3)))
        CFI (cfiCond30) DPL0 load(1, XDATA, add(CFA_XSP16, literal(-2)))
        CFI (cfiCond30) DPH0 load(1, XDATA, add(CFA_XSP16, literal(-1)))
        CFI (cfiCond30) CFA_SP SP+0
        CFI (cfiCond30) CFA_XSP16 add(XSP16, 14)
        CFI Block cfiCond31 Using cfiCommon0
        CFI (cfiCond31) NoFunction
        CFI (cfiCond31) Conditional ??CrossCallReturnLabel_14
        CFI (cfiCond31) R6 load(1, XDATA, add(CFA_XSP16, literal(-12)))
        CFI (cfiCond31) VB load(1, XDATA, add(CFA_XSP16, literal(-11)))
        CFI (cfiCond31) V0 load(1, XDATA, add(CFA_XSP16, literal(-10)))
        CFI (cfiCond31) V1 load(1, XDATA, add(CFA_XSP16, literal(-9)))
        CFI (cfiCond31) V2 load(1, XDATA, add(CFA_XSP16, literal(-8)))
        CFI (cfiCond31) V3 load(1, XDATA, add(CFA_XSP16, literal(-7)))
        CFI (cfiCond31) R7 load(1, XDATA, add(CFA_XSP16, literal(-6)))
        CFI (cfiCond31) ?RET_LOW load(1, XDATA, add(CFA_XSP16, literal(-5)))
        CFI (cfiCond31) ?RET_HIGH load(1, XDATA, add(CFA_XSP16, literal(-4)))
        CFI (cfiCond31) ?BRET_EXT load(1, XDATA, add(CFA_XSP16, literal(-3)))
        CFI (cfiCond31) DPL0 load(1, XDATA, add(CFA_XSP16, literal(-2)))
        CFI (cfiCond31) DPH0 load(1, XDATA, add(CFA_XSP16, literal(-1)))
        CFI (cfiCond31) CFA_SP SP+0
        CFI (cfiCond31) CFA_XSP16 add(XSP16, 78)
        CFI Block cfiCond32 Using cfiCommon0
        CFI (cfiCond32) NoFunction
        CFI (cfiCond32) Conditional ??CrossCallReturnLabel_15
        CFI (cfiCond32) R6 load(1, XDATA, add(CFA_XSP16, literal(-12)))
        CFI (cfiCond32) VB load(1, XDATA, add(CFA_XSP16, literal(-11)))
        CFI (cfiCond32) V0 load(1, XDATA, add(CFA_XSP16, literal(-10)))
        CFI (cfiCond32) V1 load(1, XDATA, add(CFA_XSP16, literal(-9)))
        CFI (cfiCond32) V2 load(1, XDATA, add(CFA_XSP16, literal(-8)))
        CFI (cfiCond32) V3 load(1, XDATA, add(CFA_XSP16, literal(-7)))
        CFI (cfiCond32) R7 load(1, XDATA, add(CFA_XSP16, literal(-6)))
        CFI (cfiCond32) ?RET_LOW load(1, XDATA, add(CFA_XSP16, literal(-5)))
        CFI (cfiCond32) ?RET_HIGH load(1, XDATA, add(CFA_XSP16, literal(-4)))
        CFI (cfiCond32) ?BRET_EXT load(1, XDATA, add(CFA_XSP16, literal(-3)))
        CFI (cfiCond32) DPL0 load(1, XDATA, add(CFA_XSP16, literal(-2)))
        CFI (cfiCond32) DPH0 load(1, XDATA, add(CFA_XSP16, literal(-1)))
        CFI (cfiCond32) CFA_SP SP+0
        CFI (cfiCond32) CFA_XSP16 add(XSP16, 14)
        CFI Block cfiCond33 Using cfiCommon0
        CFI (cfiCond33) NoFunction
        CFI (cfiCond33) Conditional ??CrossCallReturnLabel_16
        CFI (cfiCond33) R6 load(1, XDATA, add(CFA_XSP16, literal(-12)))
        CFI (cfiCond33) VB load(1, XDATA, add(CFA_XSP16, literal(-11)))
        CFI (cfiCond33) V0 load(1, XDATA, add(CFA_XSP16, literal(-10)))
        CFI (cfiCond33) V1 load(1, XDATA, add(CFA_XSP16, literal(-9)))
        CFI (cfiCond33) V2 load(1, XDATA, add(CFA_XSP16, literal(-8)))
        CFI (cfiCond33) V3 load(1, XDATA, add(CFA_XSP16, literal(-7)))
        CFI (cfiCond33) R7 load(1, XDATA, add(CFA_XSP16, literal(-6)))
        CFI (cfiCond33) ?RET_LOW load(1, XDATA, add(CFA_XSP16, literal(-5)))
        CFI (cfiCond33) ?RET_HIGH load(1, XDATA, add(CFA_XSP16, literal(-4)))
        CFI (cfiCond33) ?BRET_EXT load(1, XDATA, add(CFA_XSP16, literal(-3)))
        CFI (cfiCond33) DPL0 load(1, XDATA, add(CFA_XSP16, literal(-2)))
        CFI (cfiCond33) DPH0 load(1, XDATA, add(CFA_XSP16, literal(-1)))
        CFI (cfiCond33) CFA_SP SP+0
        CFI (cfiCond33) CFA_XSP16 add(XSP16, 14)
        CFI Block cfiPicker34 Using cfiCommon1
        CFI (cfiPicker34) NoFunction
        CFI (cfiPicker34) Picker
        LCALL   ??printf?relay
        MOV     A,#0x2
        RET
        CFI EndBlock cfiCond23
        CFI EndBlock cfiCond24
        CFI EndBlock cfiCond25
        CFI EndBlock cfiCond26
        CFI EndBlock cfiCond27
        CFI EndBlock cfiCond28
        CFI EndBlock cfiCond29
        CFI EndBlock cfiCond30
        CFI EndBlock cfiCond31
        CFI EndBlock cfiCond32
        CFI EndBlock cfiCond33
        CFI EndBlock cfiPicker34

        RSEG BANKED_CODE:CODE:NOROOT(0)
?Subroutine2:
        CFI Block cfiCond35 Using cfiCommon0
        CFI NoFunction
        CFI Conditional ??CrossCallReturnLabel_0
        CFI R6 load(1, XDATA, add(CFA_XSP16, literal(-10)))
        CFI VB load(1, XDATA, add(CFA_XSP16, literal(-9)))
        CFI V0 load(1, XDATA, add(CFA_XSP16, literal(-8)))
        CFI V1 load(1, XDATA, add(CFA_XSP16, literal(-7)))
        CFI R7 load(1, XDATA, add(CFA_XSP16, literal(-6)))
        CFI ?RET_LOW load(1, XDATA, add(CFA_XSP16, literal(-5)))
        CFI ?RET_HIGH load(1, XDATA, add(CFA_XSP16, literal(-4)))
        CFI ?BRET_EXT load(1, XDATA, add(CFA_XSP16, literal(-3)))
        CFI DPL0 load(1, XDATA, add(CFA_XSP16, literal(-2)))
        CFI DPH0 load(1, XDATA, add(CFA_XSP16, literal(-1)))
        CFI CFA_SP SP+0
        CFI CFA_XSP16 add(XSP16, 39)
        CFI Block cfiCond36 Using cfiCommon0
        CFI (cfiCond36) NoFunction
        CFI (cfiCond36) Conditional ??CrossCallReturnLabel_1
        CFI (cfiCond36) R6 load(1, XDATA, add(CFA_XSP16, literal(-10)))
        CFI (cfiCond36) VB load(1, XDATA, add(CFA_XSP16, literal(-9)))
        CFI (cfiCond36) V0 load(1, XDATA, add(CFA_XSP16, literal(-8)))
        CFI (cfiCond36) V1 load(1, XDATA, add(CFA_XSP16, literal(-7)))
        CFI (cfiCond36) R7 load(1, XDATA, add(CFA_XSP16, literal(-6)))
        CFI (cfiCond36) ?RET_LOW load(1, XDATA, add(CFA_XSP16, literal(-5)))
        CFI (cfiCond36) ?RET_HIGH load(1, XDATA, add(CFA_XSP16, literal(-4)))
        CFI (cfiCond36) ?BRET_EXT load(1, XDATA, add(CFA_XSP16, literal(-3)))
        CFI (cfiCond36) DPL0 load(1, XDATA, add(CFA_XSP16, literal(-2)))
        CFI (cfiCond36) DPH0 load(1, XDATA, add(CFA_XSP16, literal(-1)))
        CFI (cfiCond36) CFA_SP SP+0
        CFI (cfiCond36) CFA_XSP16 add(XSP16, 39)
        CFI Block cfiCond37 Using cfiCommon0
        CFI (cfiCond37) NoFunction
        CFI (cfiCond37) Conditional ??CrossCallReturnLabel_2
        CFI (cfiCond37) R6 load(1, XDATA, add(CFA_XSP16, literal(-12)))
        CFI (cfiCond37) VB load(1, XDATA, add(CFA_XSP16, literal(-11)))
        CFI (cfiCond37) V0 load(1, XDATA, add(CFA_XSP16, literal(-10)))
        CFI (cfiCond37) V1 load(1, XDATA, add(CFA_XSP16, literal(-9)))
        CFI (cfiCond37) V2 load(1, XDATA, add(CFA_XSP16, literal(-8)))
        CFI (cfiCond37) V3 load(1, XDATA, add(CFA_XSP16, literal(-7)))
        CFI (cfiCond37) R7 load(1, XDATA, add(CFA_XSP16, literal(-6)))
        CFI (cfiCond37) ?RET_LOW load(1, XDATA, add(CFA_XSP16, literal(-5)))
        CFI (cfiCond37) ?RET_HIGH load(1, XDATA, add(CFA_XSP16, literal(-4)))
        CFI (cfiCond37) ?BRET_EXT load(1, XDATA, add(CFA_XSP16, literal(-3)))
        CFI (cfiCond37) DPL0 load(1, XDATA, add(CFA_XSP16, literal(-2)))
        CFI (cfiCond37) DPH0 load(1, XDATA, add(CFA_XSP16, literal(-1)))
        CFI (cfiCond37) CFA_SP SP+0
        CFI (cfiCond37) CFA_XSP16 add(XSP16, 12)
        CFI Block cfiCond38 Using cfiCommon0
        CFI (cfiCond38) NoFunction
        CFI (cfiCond38) Conditional ??CrossCallReturnLabel_3
        CFI (cfiCond38) R6 load(1, XDATA, add(CFA_XSP16, literal(-12)))
        CFI (cfiCond38) VB load(1, XDATA, add(CFA_XSP16, literal(-11)))
        CFI (cfiCond38) V0 load(1, XDATA, add(CFA_XSP16, literal(-10)))
        CFI (cfiCond38) V1 load(1, XDATA, add(CFA_XSP16, literal(-9)))
        CFI (cfiCond38) V2 load(1, XDATA, add(CFA_XSP16, literal(-8)))
        CFI (cfiCond38) V3 load(1, XDATA, add(CFA_XSP16, literal(-7)))
        CFI (cfiCond38) R7 load(1, XDATA, add(CFA_XSP16, literal(-6)))
        CFI (cfiCond38) ?RET_LOW load(1, XDATA, add(CFA_XSP16, literal(-5)))
        CFI (cfiCond38) ?RET_HIGH load(1, XDATA, add(CFA_XSP16, literal(-4)))
        CFI (cfiCond38) ?BRET_EXT load(1, XDATA, add(CFA_XSP16, literal(-3)))
        CFI (cfiCond38) DPL0 load(1, XDATA, add(CFA_XSP16, literal(-2)))
        CFI (cfiCond38) DPH0 load(1, XDATA, add(CFA_XSP16, literal(-1)))
        CFI (cfiCond38) CFA_SP SP+0
        CFI (cfiCond38) CFA_XSP16 add(XSP16, 12)
        CFI Block cfiCond39 Using cfiCommon0
        CFI (cfiCond39) NoFunction
        CFI (cfiCond39) Conditional ??CrossCallReturnLabel_4
        CFI (cfiCond39) R6 load(1, XDATA, add(CFA_XSP16, literal(-14)))
        CFI (cfiCond39) VB load(1, XDATA, add(CFA_XSP16, literal(-13)))
        CFI (cfiCond39) V0 load(1, XDATA, add(CFA_XSP16, literal(-12)))
        CFI (cfiCond39) V1 load(1, XDATA, add(CFA_XSP16, literal(-11)))
        CFI (cfiCond39) V2 load(1, XDATA, add(CFA_XSP16, literal(-10)))
        CFI (cfiCond39) V3 load(1, XDATA, add(CFA_XSP16, literal(-9)))
        CFI (cfiCond39) V4 load(1, XDATA, add(CFA_XSP16, literal(-8)))
        CFI (cfiCond39) V5 load(1, XDATA, add(CFA_XSP16, literal(-7)))
        CFI (cfiCond39) R7 load(1, XDATA, add(CFA_XSP16, literal(-6)))
        CFI (cfiCond39) ?RET_LOW load(1, XDATA, add(CFA_XSP16, literal(-5)))
        CFI (cfiCond39) ?RET_HIGH load(1, XDATA, add(CFA_XSP16, literal(-4)))
        CFI (cfiCond39) ?BRET_EXT load(1, XDATA, add(CFA_XSP16, literal(-3)))
        CFI (cfiCond39) DPL0 load(1, XDATA, add(CFA_XSP16, literal(-2)))
        CFI (cfiCond39) DPH0 load(1, XDATA, add(CFA_XSP16, literal(-1)))
        CFI (cfiCond39) CFA_SP SP+0
        CFI (cfiCond39) CFA_XSP16 add(XSP16, 66)
        CFI Block cfiCond40 Using cfiCommon0
        CFI (cfiCond40) NoFunction
        CFI (cfiCond40) Conditional ??CrossCallReturnLabel_5
        CFI (cfiCond40) R6 load(1, XDATA, add(CFA_XSP16, literal(-12)))
        CFI (cfiCond40) VB load(1, XDATA, add(CFA_XSP16, literal(-11)))
        CFI (cfiCond40) V0 load(1, XDATA, add(CFA_XSP16, literal(-10)))
        CFI (cfiCond40) V1 load(1, XDATA, add(CFA_XSP16, literal(-9)))
        CFI (cfiCond40) V2 load(1, XDATA, add(CFA_XSP16, literal(-8)))
        CFI (cfiCond40) V3 load(1, XDATA, add(CFA_XSP16, literal(-7)))
        CFI (cfiCond40) R7 load(1, XDATA, add(CFA_XSP16, literal(-6)))
        CFI (cfiCond40) ?RET_LOW load(1, XDATA, add(CFA_XSP16, literal(-5)))
        CFI (cfiCond40) ?RET_HIGH load(1, XDATA, add(CFA_XSP16, literal(-4)))
        CFI (cfiCond40) ?BRET_EXT load(1, XDATA, add(CFA_XSP16, literal(-3)))
        CFI (cfiCond40) DPL0 load(1, XDATA, add(CFA_XSP16, literal(-2)))
        CFI (cfiCond40) DPH0 load(1, XDATA, add(CFA_XSP16, literal(-1)))
        CFI (cfiCond40) CFA_SP SP+0
        CFI (cfiCond40) CFA_XSP16 add(XSP16, 76)
        CFI Block cfiPicker41 Using cfiCommon1
        CFI (cfiPicker41) NoFunction
        CFI (cfiPicker41) Picker
        LCALL   ??Util_ReadName?relay
        MOV     ?V0 + 0,R2
        MOV     ?V0 + 1,R3
        ; Setup parameters for call to function sprintf
        MOV     R0,#?V0 + 0
        RET
        CFI EndBlock cfiCond35
        CFI EndBlock cfiCond36
        CFI EndBlock cfiCond37
        CFI EndBlock cfiCond38
        CFI EndBlock cfiCond39
        CFI EndBlock cfiCond40
        CFI EndBlock cfiPicker41
//  675 
//  676 /**
//  677  save name addr map 
//  678 */
//  679 void SmartHomeApp_ProcessNameAddrMapResp(uint8* data);

        RSEG BANKED_CODE:CODE:NOROOT(0)
//  680 void SmartHomeApp_ProcessNameAddrMapResp(uint8* data)
SmartHomeApp_ProcessNameAddrMapResp:
        CFI Block cfiBlock42 Using cfiCommon0
        CFI Function SmartHomeApp_ProcessNameAddrMapResp
        CODE
//  681 {
        FUNCALL SmartHomeApp_ProcessNameAddrMapResp, osal_strlen
        LOCFRAME ISTACK, 0, STACK
        LOCFRAME PSTACK, 0, STACK
        LOCFRAME XSTACK, 12, STACK
        LOCFRAME IOVERLAY, 0, STATIC
        LOCFRAME DOVERLAY, 0, STATIC
        ARGFRAME ISTACK, 0, STACK
        ARGFRAME PSTACK, 0, STACK
        ARGFRAME XSTACK, 12, STACK
        ARGFRAME IOVERLAY, 0, STATIC
        ARGFRAME DOVERLAY, 0, STATIC
        FUNCALL SmartHomeApp_ProcessNameAddrMapResp, osal_strlen
        LOCFRAME ISTACK, 0, STACK
        LOCFRAME PSTACK, 0, STACK
        LOCFRAME XSTACK, 12, STACK
        LOCFRAME IOVERLAY, 0, STATIC
        LOCFRAME DOVERLAY, 0, STATIC
        ARGFRAME ISTACK, 0, STACK
        ARGFRAME PSTACK, 0, STACK
        ARGFRAME XSTACK, 12, STACK
        ARGFRAME IOVERLAY, 0, STATIC
        ARGFRAME DOVERLAY, 0, STATIC
        FUNCALL SmartHomeApp_ProcessNameAddrMapResp, printf
        LOCFRAME ISTACK, 0, STACK
        LOCFRAME PSTACK, 0, STACK
        LOCFRAME XSTACK, 14, STACK
        LOCFRAME IOVERLAY, 0, STATIC
        LOCFRAME DOVERLAY, 0, STATIC
        ARGFRAME ISTACK, 0, STACK
        ARGFRAME PSTACK, 0, STACK
        ARGFRAME XSTACK, 14, STACK
        ARGFRAME IOVERLAY, 0, STATIC
        ARGFRAME DOVERLAY, 0, STATIC
        FUNCALL SmartHomeApp_ProcessNameAddrMapResp, Util_Str2Uint16
        LOCFRAME ISTACK, 0, STACK
        LOCFRAME PSTACK, 0, STACK
        LOCFRAME XSTACK, 12, STACK
        LOCFRAME IOVERLAY, 0, STATIC
        LOCFRAME DOVERLAY, 0, STATIC
        ARGFRAME ISTACK, 0, STACK
        ARGFRAME PSTACK, 0, STACK
        ARGFRAME XSTACK, 12, STACK
        ARGFRAME IOVERLAY, 0, STATIC
        ARGFRAME DOVERLAY, 0, STATIC
        FUNCALL SmartHomeApp_ProcessNameAddrMapResp, NameAddrCache_put
        LOCFRAME ISTACK, 0, STACK
        LOCFRAME PSTACK, 0, STACK
        LOCFRAME XSTACK, 12, STACK
        LOCFRAME IOVERLAY, 0, STATIC
        LOCFRAME DOVERLAY, 0, STATIC
        ARGFRAME ISTACK, 0, STACK
        ARGFRAME PSTACK, 0, STACK
        ARGFRAME XSTACK, 12, STACK
        ARGFRAME IOVERLAY, 0, STATIC
        ARGFRAME DOVERLAY, 0, STATIC
        MOV     A,#-0xc
        LCALL   ?BANKED_ENTER_XDATA
        CFI DPH0 load(1, XDATA, add(CFA_XSP16, literal(-1)))
        CFI DPL0 load(1, XDATA, add(CFA_XSP16, literal(-2)))
        CFI ?BRET_EXT load(1, XDATA, add(CFA_XSP16, literal(-3)))
        CFI ?RET_HIGH load(1, XDATA, add(CFA_XSP16, literal(-4)))
        CFI ?RET_LOW load(1, XDATA, add(CFA_XSP16, literal(-5)))
        CFI R7 load(1, XDATA, add(CFA_XSP16, literal(-6)))
        CFI V3 load(1, XDATA, add(CFA_XSP16, literal(-7)))
        CFI V2 load(1, XDATA, add(CFA_XSP16, literal(-8)))
        CFI V1 load(1, XDATA, add(CFA_XSP16, literal(-9)))
        CFI V0 load(1, XDATA, add(CFA_XSP16, literal(-10)))
        CFI VB load(1, XDATA, add(CFA_XSP16, literal(-11)))
        CFI R6 load(1, XDATA, add(CFA_XSP16, literal(-12)))
        CFI CFA_SP SP+0
        CFI CFA_XSP16 add(XSP16, 12)
        ; Saved register size: 12
        ; Auto size: 0
        MOV     ?V0 + 0,R2
        MOV     ?V0 + 1,R3
//  682    //NameAddrMap 1234 name
//  683   if (osal_strlen((char*)data) < 18|| osal_strlen((char*)data) > 38) {
        ; Setup parameters for call to function osal_strlen
        LCALL   ??osal_strlen?relay
        CLR     C
        MOV     A,R2
        SUBB    A,#0x12
        MOV     A,R3
        SUBB    A,#0x0
        MOV     C,0xD0 /* PSW */.2
        XRL     A,PSW
        RLC     A
        JC      ??SmartHomeApp_ProcessNameAddrMapResp_0
        ; Setup parameters for call to function osal_strlen
        MOV     R2,?V0 + 0
        MOV     R3,?V0 + 1
        LCALL   ??osal_strlen?relay
        CLR     C
        MOV     A,R2
        SUBB    A,#0x27
        MOV     A,R3
        SUBB    A,#0x0
        MOV     C,0xD0 /* PSW */.2
        XRL     A,PSW
        RLC     A
        JC      ??SmartHomeApp_ProcessNameAddrMapResp_1
//  684     // invalid data
//  685     printf("Invalid name addr map: %s\n", data);
??SmartHomeApp_ProcessNameAddrMapResp_0:
        ; Setup parameters for call to function printf
        MOV     R0,#?V0 + 0
        LCALL   ?PUSH_XSTACK_I_TWO
        CFI CFA_XSP16 add(XSP16, 14)
        MOV     R2,#`?<Constant "Invalid name addr map...">` & 0xff
        MOV     R3,#(`?<Constant "Invalid name addr map...">` >> 8) & 0xff
        LCALL   ?Subroutine3 & 0xFFFF
??CrossCallReturnLabel_13:
        LCALL   ?DEALLOC_XSTACK8
        CFI CFA_XSP16 add(XSP16, 12)
//  686     return;
        SJMP    ??SmartHomeApp_ProcessNameAddrMapResp_2
//  687   }
//  688   
//  689   
//  690   uint8* addrPtr = data + 12;
//  691   uint8* namePtr = data + 17;
//  692   uint16 addr = Util_Str2Uint16(addrPtr);
??SmartHomeApp_ProcessNameAddrMapResp_1:
        ; Setup parameters for call to function Util_Str2Uint16
        MOV     A,?V0 + 0
        ADD     A,#0xc
        MOV     R2,A
        MOV     A,?V0 + 1
        ADDC    A,#0x0
        MOV     R3,A
        LCALL   ??Util_Str2Uint16?relay
        MOV     ?V0 + 2,R2
        MOV     ?V0 + 3,R3
        MOV     R4,?V0 + 2
        MOV     R5,?V0 + 3
//  693   
//  694  // printf("addrPtr: %s, name=%s, add=%04X\n", addrPtr, namePtr, addr);
//  695   
//  696   if (addr != 0xFFFF) {
        MOV     A,#-0x1
        XRL     A,R4
        JNZ     ??SmartHomeApp_ProcessNameAddrMapResp_3
        MOV     A,#-0x1
        XRL     A,R5
??SmartHomeApp_ProcessNameAddrMapResp_3:
        JZ      ??SmartHomeApp_ProcessNameAddrMapResp_2
//  697     NameAddrCache_put(namePtr, addr); 
        ; Setup parameters for call to function NameAddrCache_put
        MOV     A,?V0 + 0
        ADD     A,#0x11
        MOV     R2,A
        MOV     A,?V0 + 1
        ADDC    A,#0x0
        MOV     R3,A
        LCALL   ??NameAddrCache_put?relay
        CFI EndBlock cfiBlock42
//  698   }
??SmartHomeApp_ProcessNameAddrMapResp_2:
        REQUIRE ?Subroutine0
        ; // Fall through to label ?Subroutine0
//  699 }

        RSEG BANKED_CODE:CODE:NOROOT(0)
?Subroutine0:
        CFI Block cfiBlock43 Using cfiCommon0
        CFI NoFunction
        CFI CFA_SP SP+0
        CFI CFA_XSP16 add(XSP16, 12)
        CFI VB load(1, XDATA, add(CFA_XSP16, literal(-11)))
        CFI DPL0 load(1, XDATA, add(CFA_XSP16, literal(-2)))
        CFI DPH0 load(1, XDATA, add(CFA_XSP16, literal(-1)))
        CFI R6 load(1, XDATA, add(CFA_XSP16, literal(-12)))
        CFI R7 load(1, XDATA, add(CFA_XSP16, literal(-6)))
        CFI V0 load(1, XDATA, add(CFA_XSP16, literal(-10)))
        CFI V1 load(1, XDATA, add(CFA_XSP16, literal(-9)))
        CFI V2 load(1, XDATA, add(CFA_XSP16, literal(-8)))
        CFI V3 load(1, XDATA, add(CFA_XSP16, literal(-7)))
        CFI ?BRET_EXT load(1, XDATA, add(CFA_XSP16, literal(-3)))
        CFI ?RET_HIGH load(1, XDATA, add(CFA_XSP16, literal(-4)))
        CFI ?RET_LOW load(1, XDATA, add(CFA_XSP16, literal(-5)))
        MOV     R7,#0x4
        LJMP    ?BANKED_LEAVE_XDATA
        CFI EndBlock cfiBlock43
//  700 
//  701 

        RSEG BANKED_CODE:CODE:NOROOT(0)
//  702 static void SmartHomeApp_SendNameAddrResp(afIncomingMSGPacket_t *pkt)
SmartHomeApp_SendNameAddrResp:
        CFI Block cfiBlock44 Using cfiCommon0
        CFI Function SmartHomeApp_SendNameAddrResp
        CODE
//  703 {
        FUNCALL SmartHomeApp_SendNameAddrResp, Util_ReadName
        LOCFRAME ISTACK, 0, STACK
        LOCFRAME PSTACK, 0, STACK
        LOCFRAME XSTACK, 76, STACK
        LOCFRAME IOVERLAY, 0, STATIC
        LOCFRAME DOVERLAY, 0, STATIC
        ARGFRAME ISTACK, 0, STACK
        ARGFRAME PSTACK, 0, STACK
        ARGFRAME XSTACK, 76, STACK
        ARGFRAME IOVERLAY, 0, STATIC
        ARGFRAME DOVERLAY, 0, STATIC
        FUNCALL SmartHomeApp_SendNameAddrResp, NLME_GetShortAddr
        LOCFRAME ISTACK, 0, STACK
        LOCFRAME PSTACK, 0, STACK
        LOCFRAME XSTACK, 78, STACK
        LOCFRAME IOVERLAY, 0, STATIC
        LOCFRAME DOVERLAY, 0, STATIC
        ARGFRAME ISTACK, 0, STACK
        ARGFRAME PSTACK, 0, STACK
        ARGFRAME XSTACK, 78, STACK
        ARGFRAME IOVERLAY, 0, STATIC
        ARGFRAME DOVERLAY, 0, STATIC
        FUNCALL SmartHomeApp_SendNameAddrResp, sprintf
        LOCFRAME ISTACK, 0, STACK
        LOCFRAME PSTACK, 0, STACK
        LOCFRAME XSTACK, 80, STACK
        LOCFRAME IOVERLAY, 0, STATIC
        LOCFRAME DOVERLAY, 0, STATIC
        ARGFRAME ISTACK, 0, STACK
        ARGFRAME PSTACK, 0, STACK
        ARGFRAME XSTACK, 80, STACK
        ARGFRAME IOVERLAY, 0, STATIC
        ARGFRAME DOVERLAY, 0, STATIC
        FUNCALL SmartHomeApp_SendNameAddrResp, osal_strlen
        LOCFRAME ISTACK, 0, STACK
        LOCFRAME PSTACK, 0, STACK
        LOCFRAME XSTACK, 81, STACK
        LOCFRAME IOVERLAY, 0, STATIC
        LOCFRAME DOVERLAY, 0, STATIC
        ARGFRAME ISTACK, 0, STACK
        ARGFRAME PSTACK, 0, STACK
        ARGFRAME XSTACK, 81, STACK
        ARGFRAME IOVERLAY, 0, STATIC
        ARGFRAME DOVERLAY, 0, STATIC
        FUNCALL SmartHomeApp_SendNameAddrResp, AF_DataRequest
        LOCFRAME ISTACK, 0, STACK
        LOCFRAME PSTACK, 0, STACK
        LOCFRAME XSTACK, 85, STACK
        LOCFRAME IOVERLAY, 0, STATIC
        LOCFRAME DOVERLAY, 0, STATIC
        ARGFRAME ISTACK, 0, STACK
        ARGFRAME PSTACK, 0, STACK
        ARGFRAME XSTACK, 85, STACK
        ARGFRAME IOVERLAY, 0, STATIC
        ARGFRAME DOVERLAY, 0, STATIC
        FUNCALL SmartHomeApp_SendNameAddrResp, printf
        LOCFRAME ISTACK, 0, STACK
        LOCFRAME PSTACK, 0, STACK
        LOCFRAME XSTACK, 78, STACK
        LOCFRAME IOVERLAY, 0, STATIC
        LOCFRAME DOVERLAY, 0, STATIC
        ARGFRAME ISTACK, 0, STACK
        ARGFRAME PSTACK, 0, STACK
        ARGFRAME XSTACK, 78, STACK
        ARGFRAME IOVERLAY, 0, STATIC
        ARGFRAME DOVERLAY, 0, STATIC
        MOV     A,#-0xc
        LCALL   ?BANKED_ENTER_XDATA
        CFI DPH0 load(1, XDATA, add(CFA_XSP16, literal(-1)))
        CFI DPL0 load(1, XDATA, add(CFA_XSP16, literal(-2)))
        CFI ?BRET_EXT load(1, XDATA, add(CFA_XSP16, literal(-3)))
        CFI ?RET_HIGH load(1, XDATA, add(CFA_XSP16, literal(-4)))
        CFI ?RET_LOW load(1, XDATA, add(CFA_XSP16, literal(-5)))
        CFI R7 load(1, XDATA, add(CFA_XSP16, literal(-6)))
        CFI V3 load(1, XDATA, add(CFA_XSP16, literal(-7)))
        CFI V2 load(1, XDATA, add(CFA_XSP16, literal(-8)))
        CFI V1 load(1, XDATA, add(CFA_XSP16, literal(-9)))
        CFI V0 load(1, XDATA, add(CFA_XSP16, literal(-10)))
        CFI VB load(1, XDATA, add(CFA_XSP16, literal(-11)))
        CFI R6 load(1, XDATA, add(CFA_XSP16, literal(-12)))
        CFI CFA_SP SP+0
        CFI CFA_XSP16 add(XSP16, 12)
        ; Saved register size: 12
        ; Auto size: 64
        MOV     A,#-0x40
        LCALL   ?ALLOC_XSTACK8
        CFI CFA_XSP16 add(XSP16, 76)
//  704   uint8 buf[64];
//  705   
//  706   
//  707   SmartHomeApp_DstAddr.addrMode = (afAddrMode_t)Addr16Bit;
        MOV     DPTR,#SmartHomeApp_DstAddr + 8
        MOV     A,#0x2
        MOVX    @DPTR,A
//  708   SmartHomeApp_DstAddr.endPoint = SmartHomeApp_ENDPOINT;
        INC     DPTR
        MOV     A,#0xa
        LCALL   ?Subroutine5 & 0xFFFF
//  709   SmartHomeApp_DstAddr.addr.shortAddr = pkt->srcAddr.addr.shortAddr;
??CrossCallReturnLabel_20:
        LCALL   ?Subroutine10 & 0xFFFF
//  710   
//  711   sprintf((char*)buf, "NameAddrMap %04X %s", NLME_GetShortAddr(), (char*)Util_ReadName());
??CrossCallReturnLabel_34:
        ; Setup parameters for call to function Util_ReadName
        LCALL   ?Subroutine2 & 0xFFFF
??CrossCallReturnLabel_5:
        LCALL   ?PUSH_XSTACK_I_TWO
        CFI CFA_XSP16 add(XSP16, 78)
        ; Setup parameters for call to function NLME_GetShortAddr
        LCALL   ??NLME_GetShortAddr?relay
        MOV     ?V0 + 0,R2
        MOV     ?V0 + 1,R3
        MOV     R0,#?V0 + 0
        LCALL   ?PUSH_XSTACK_I_TWO
        CFI CFA_XSP16 add(XSP16, 80)
        MOV     R4,#`?<Constant "NameAddrMap %04X %s">` & 0xff
        MOV     R5,#(`?<Constant "NameAddrMap %04X %s">` >> 8) & 0xff
        MOV     A,#0x4
        LCALL   ?XSTACK_DISP0_8
        MOV     R2,DPL
        MOV     R3,DPH
        LCALL   ??sprintf?relay
        MOV     A,#0x4
        LCALL   ?DEALLOC_XSTACK8
        CFI CFA_XSP16 add(XSP16, 76)
//  712     
//  713   if ( AF_DataRequest( &SmartHomeApp_DstAddr, &SmartHomeApp_epDesc,
//  714                        SmartHomeApp_CLUSTERID,
//  715                        osal_strlen((char*)buf)+1,
//  716                        (uint8*)buf,
//  717                        &SmartHomeApp_TransID,
//  718                        AF_DISCV_ROUTE, AF_DEFAULT_RADIUS ) == afStatus_SUCCESS )
        ; Setup parameters for call to function AF_DataRequest
        MOV     ?V0 + 0,#0x1e
        MOV     R0,#?V0 + 0
        LCALL   ?PUSH_XSTACK_I_ONE
        CFI CFA_XSP16 add(XSP16, 77)
        MOV     ?V0 + 0,#SmartHomeApp_TransID & 0xff
        MOV     ?V0 + 1,#(SmartHomeApp_TransID >> 8) & 0xff
        MOV     R0,#?V0 + 0
        LCALL   ?PUSH_XSTACK_I_TWO
        CFI CFA_XSP16 add(XSP16, 79)
        MOV     A,#0x3
        LCALL   ?XSTACK_DISP0_8
        MOV     ?V0 + 0,DPL
        MOV     ?V0 + 1,DPH
        MOV     R0,#?V0 + 0
        LCALL   ?PUSH_XSTACK_I_TWO
        CFI CFA_XSP16 add(XSP16, 81)
        ; Setup parameters for call to function osal_strlen
        MOV     A,#0x5
        LCALL   ?XSTACK_DISP0_8
        LCALL   ?Subroutine9 & 0xFFFF
??CrossCallReturnLabel_32:
        LCALL   ?PUSH_XSTACK_I_TWO
        CFI CFA_XSP16 add(XSP16, 83)
        MOV     ?V0 + 0,#0x1
        MOV     ?V0 + 1,#0x0
        MOV     R0,#?V0 + 0
        LCALL   ?PUSH_XSTACK_I_TWO
        CFI CFA_XSP16 add(XSP16, 85)
        MOV     R1,#0x20
        MOV     R4,#SmartHomeApp_epDesc & 0xff
        MOV     R5,#(SmartHomeApp_epDesc >> 8) & 0xff
        MOV     R2,#SmartHomeApp_DstAddr & 0xff
        MOV     R3,#(SmartHomeApp_DstAddr >> 8) & 0xff
        LCALL   ??AF_DataRequest?relay
        MOV     A,#0x9
        LCALL   ?DEALLOC_XSTACK8
        CFI CFA_XSP16 add(XSP16, 76)
        MOV     A,R1
        JZ      ??SmartHomeApp_SendNameAddrResp_0
//  719   {
//  720     // Successfully requested to be sent.
//  721   }
//  722   else
//  723   {
//  724     printf("SmartHomeApp_SendNameAddrResp error %s\n", buf);
        ; Setup parameters for call to function printf
        MOV     DPL,?XSP + 0
        MOV     DPH,?XSP + 1
        MOV     ?V0 + 0,DPL
        MOV     ?V0 + 1,DPH
        MOV     R0,#?V0 + 0
        LCALL   ?PUSH_XSTACK_I_TWO
        CFI CFA_XSP16 add(XSP16, 78)
        MOV     R2,#`?<Constant "SmartHomeApp_SendName...">` & 0xff
        MOV     R3,#(`?<Constant "SmartHomeApp_SendName...">` >> 8) & 0xff
        LCALL   ?Subroutine3 & 0xFFFF
//  725   }
??CrossCallReturnLabel_14:
        LCALL   ?DEALLOC_XSTACK8
        CFI CFA_XSP16 add(XSP16, 76)
//  726   
//  727 }
??SmartHomeApp_SendNameAddrResp_0:
        MOV     A,#0x40
        LCALL   ?DEALLOC_XSTACK8
        CFI CFA_XSP16 add(XSP16, 12)
        LJMP    ?Subroutine0 & 0xFFFF
        CFI EndBlock cfiBlock44

        RSEG BANKED_CODE:CODE:NOROOT(0)
?Subroutine10:
        CFI Block cfiCond45 Using cfiCommon0
        CFI NoFunction
        CFI Conditional ??CrossCallReturnLabel_33
        CFI R6 load(1, XDATA, add(CFA_XSP16, literal(-14)))
        CFI VB load(1, XDATA, add(CFA_XSP16, literal(-13)))
        CFI V0 load(1, XDATA, add(CFA_XSP16, literal(-12)))
        CFI V1 load(1, XDATA, add(CFA_XSP16, literal(-11)))
        CFI V2 load(1, XDATA, add(CFA_XSP16, literal(-10)))
        CFI V3 load(1, XDATA, add(CFA_XSP16, literal(-9)))
        CFI V4 load(1, XDATA, add(CFA_XSP16, literal(-8)))
        CFI V5 load(1, XDATA, add(CFA_XSP16, literal(-7)))
        CFI R7 load(1, XDATA, add(CFA_XSP16, literal(-6)))
        CFI ?RET_LOW load(1, XDATA, add(CFA_XSP16, literal(-5)))
        CFI ?RET_HIGH load(1, XDATA, add(CFA_XSP16, literal(-4)))
        CFI ?BRET_EXT load(1, XDATA, add(CFA_XSP16, literal(-3)))
        CFI DPL0 load(1, XDATA, add(CFA_XSP16, literal(-2)))
        CFI DPH0 load(1, XDATA, add(CFA_XSP16, literal(-1)))
        CFI CFA_SP SP+0
        CFI CFA_XSP16 add(XSP16, 62)
        CFI Block cfiCond46 Using cfiCommon0
        CFI (cfiCond46) NoFunction
        CFI (cfiCond46) Conditional ??CrossCallReturnLabel_34
        CFI (cfiCond46) R6 load(1, XDATA, add(CFA_XSP16, literal(-12)))
        CFI (cfiCond46) VB load(1, XDATA, add(CFA_XSP16, literal(-11)))
        CFI (cfiCond46) V0 load(1, XDATA, add(CFA_XSP16, literal(-10)))
        CFI (cfiCond46) V1 load(1, XDATA, add(CFA_XSP16, literal(-9)))
        CFI (cfiCond46) V2 load(1, XDATA, add(CFA_XSP16, literal(-8)))
        CFI (cfiCond46) V3 load(1, XDATA, add(CFA_XSP16, literal(-7)))
        CFI (cfiCond46) R7 load(1, XDATA, add(CFA_XSP16, literal(-6)))
        CFI (cfiCond46) ?RET_LOW load(1, XDATA, add(CFA_XSP16, literal(-5)))
        CFI (cfiCond46) ?RET_HIGH load(1, XDATA, add(CFA_XSP16, literal(-4)))
        CFI (cfiCond46) ?BRET_EXT load(1, XDATA, add(CFA_XSP16, literal(-3)))
        CFI (cfiCond46) DPL0 load(1, XDATA, add(CFA_XSP16, literal(-2)))
        CFI (cfiCond46) DPH0 load(1, XDATA, add(CFA_XSP16, literal(-1)))
        CFI (cfiCond46) CFA_SP SP+0
        CFI (cfiCond46) CFA_XSP16 add(XSP16, 76)
        CFI Block cfiPicker47 Using cfiCommon1
        CFI (cfiPicker47) NoFunction
        CFI (cfiPicker47) Picker
        INC     DPTR
        LCALL   ?Subroutine12 & 0xFFFF
??CrossCallReturnLabel_36:
        MOVX    @DPTR,A
        RET
        CFI EndBlock cfiCond45
        CFI EndBlock cfiCond46
        CFI EndBlock cfiPicker47

        RSEG BANKED_CODE:CODE:NOROOT(0)
?Subroutine12:
        CFI Block cfiCond48 Using cfiCommon0
        CFI NoFunction
        CFI Conditional ??CrossCallReturnLabel_35
        CFI R6 load(1, XDATA, add(CFA_XSP16, literal(-14)))
        CFI VB load(1, XDATA, add(CFA_XSP16, literal(-13)))
        CFI V0 load(1, XDATA, add(CFA_XSP16, literal(-12)))
        CFI V1 load(1, XDATA, add(CFA_XSP16, literal(-11)))
        CFI V2 load(1, XDATA, add(CFA_XSP16, literal(-10)))
        CFI V3 load(1, XDATA, add(CFA_XSP16, literal(-9)))
        CFI V4 load(1, XDATA, add(CFA_XSP16, literal(-8)))
        CFI V5 load(1, XDATA, add(CFA_XSP16, literal(-7)))
        CFI R7 load(1, XDATA, add(CFA_XSP16, literal(-6)))
        CFI ?RET_LOW load(1, XDATA, add(CFA_XSP16, literal(-5)))
        CFI ?RET_HIGH load(1, XDATA, add(CFA_XSP16, literal(-4)))
        CFI ?BRET_EXT load(1, XDATA, add(CFA_XSP16, literal(-3)))
        CFI DPL0 load(1, XDATA, add(CFA_XSP16, literal(-2)))
        CFI DPH0 load(1, XDATA, add(CFA_XSP16, literal(-1)))
        CFI CFA_SP SP+0
        CFI CFA_XSP16 add(XSP16, 14)
        CFI Block cfiCond49 Using cfiCommon0
        CFI (cfiCond49) NoFunction
        CFI (cfiCond49) Conditional ??CrossCallReturnLabel_36, ??CrossCallReturnLabel_33
        CFI (cfiCond49) R6 load(1, XDATA, add(CFA_XSP16, literal(-14)))
        CFI (cfiCond49) VB load(1, XDATA, add(CFA_XSP16, literal(-13)))
        CFI (cfiCond49) V0 load(1, XDATA, add(CFA_XSP16, literal(-12)))
        CFI (cfiCond49) V1 load(1, XDATA, add(CFA_XSP16, literal(-11)))
        CFI (cfiCond49) V2 load(1, XDATA, add(CFA_XSP16, literal(-10)))
        CFI (cfiCond49) V3 load(1, XDATA, add(CFA_XSP16, literal(-9)))
        CFI (cfiCond49) V4 load(1, XDATA, add(CFA_XSP16, literal(-8)))
        CFI (cfiCond49) V5 load(1, XDATA, add(CFA_XSP16, literal(-7)))
        CFI (cfiCond49) R7 load(1, XDATA, add(CFA_XSP16, literal(-6)))
        CFI (cfiCond49) ?RET_LOW load(1, XDATA, add(CFA_XSP16, literal(-5)))
        CFI (cfiCond49) ?RET_HIGH load(1, XDATA, add(CFA_XSP16, literal(-4)))
        CFI (cfiCond49) ?BRET_EXT load(1, XDATA, add(CFA_XSP16, literal(-3)))
        CFI (cfiCond49) DPL0 load(1, XDATA, add(CFA_XSP16, literal(-2)))
        CFI (cfiCond49) DPH0 load(1, XDATA, add(CFA_XSP16, literal(-1)))
        CFI (cfiCond49) CFA_SP SP+0
        CFI (cfiCond49) CFA_XSP16 add(XSP16, 62)
        CFI Block cfiCond50 Using cfiCommon0
        CFI (cfiCond50) NoFunction
        CFI (cfiCond50) Conditional ??CrossCallReturnLabel_36, ??CrossCallReturnLabel_34
        CFI (cfiCond50) R6 load(1, XDATA, add(CFA_XSP16, literal(-12)))
        CFI (cfiCond50) VB load(1, XDATA, add(CFA_XSP16, literal(-11)))
        CFI (cfiCond50) V0 load(1, XDATA, add(CFA_XSP16, literal(-10)))
        CFI (cfiCond50) V1 load(1, XDATA, add(CFA_XSP16, literal(-9)))
        CFI (cfiCond50) V2 load(1, XDATA, add(CFA_XSP16, literal(-8)))
        CFI (cfiCond50) V3 load(1, XDATA, add(CFA_XSP16, literal(-7)))
        CFI (cfiCond50) R7 load(1, XDATA, add(CFA_XSP16, literal(-6)))
        CFI (cfiCond50) ?RET_LOW load(1, XDATA, add(CFA_XSP16, literal(-5)))
        CFI (cfiCond50) ?RET_HIGH load(1, XDATA, add(CFA_XSP16, literal(-4)))
        CFI (cfiCond50) ?BRET_EXT load(1, XDATA, add(CFA_XSP16, literal(-3)))
        CFI (cfiCond50) DPL0 load(1, XDATA, add(CFA_XSP16, literal(-2)))
        CFI (cfiCond50) DPH0 load(1, XDATA, add(CFA_XSP16, literal(-1)))
        CFI (cfiCond50) CFA_SP SP+0
        CFI (cfiCond50) CFA_XSP16 add(XSP16, 76)
        CFI Block cfiPicker51 Using cfiCommon1
        CFI (cfiPicker51) NoFunction
        CFI (cfiPicker51) Picker
        INC     DPTR
        MOVX    A,@DPTR
        MOV     R0,A
        INC     DPTR
        MOVX    A,@DPTR
        MOV     R1,A
        MOV     DPTR,#SmartHomeApp_DstAddr
        MOV     A,R0
        MOVX    @DPTR,A
        INC     DPTR
        MOV     A,R1
        RET
        CFI EndBlock cfiCond48
        CFI EndBlock cfiCond49
        CFI EndBlock cfiCond50
        CFI EndBlock cfiPicker51

        RSEG BANKED_CODE:CODE:NOROOT(0)
?Subroutine9:
        CFI Block cfiCond52 Using cfiCommon0
        CFI NoFunction
        CFI Conditional ??CrossCallReturnLabel_31
        CFI R6 load(1, XDATA, add(CFA_XSP16, literal(-14)))
        CFI VB load(1, XDATA, add(CFA_XSP16, literal(-13)))
        CFI V0 load(1, XDATA, add(CFA_XSP16, literal(-12)))
        CFI V1 load(1, XDATA, add(CFA_XSP16, literal(-11)))
        CFI V2 load(1, XDATA, add(CFA_XSP16, literal(-10)))
        CFI V3 load(1, XDATA, add(CFA_XSP16, literal(-9)))
        CFI V4 load(1, XDATA, add(CFA_XSP16, literal(-8)))
        CFI V5 load(1, XDATA, add(CFA_XSP16, literal(-7)))
        CFI R7 load(1, XDATA, add(CFA_XSP16, literal(-6)))
        CFI ?RET_LOW load(1, XDATA, add(CFA_XSP16, literal(-5)))
        CFI ?RET_HIGH load(1, XDATA, add(CFA_XSP16, literal(-4)))
        CFI ?BRET_EXT load(1, XDATA, add(CFA_XSP16, literal(-3)))
        CFI DPL0 load(1, XDATA, add(CFA_XSP16, literal(-2)))
        CFI DPH0 load(1, XDATA, add(CFA_XSP16, literal(-1)))
        CFI CFA_SP SP+0
        CFI CFA_XSP16 add(XSP16, 67)
        CFI Block cfiCond53 Using cfiCommon0
        CFI (cfiCond53) NoFunction
        CFI (cfiCond53) Conditional ??CrossCallReturnLabel_32
        CFI (cfiCond53) R6 load(1, XDATA, add(CFA_XSP16, literal(-12)))
        CFI (cfiCond53) VB load(1, XDATA, add(CFA_XSP16, literal(-11)))
        CFI (cfiCond53) V0 load(1, XDATA, add(CFA_XSP16, literal(-10)))
        CFI (cfiCond53) V1 load(1, XDATA, add(CFA_XSP16, literal(-9)))
        CFI (cfiCond53) V2 load(1, XDATA, add(CFA_XSP16, literal(-8)))
        CFI (cfiCond53) V3 load(1, XDATA, add(CFA_XSP16, literal(-7)))
        CFI (cfiCond53) R7 load(1, XDATA, add(CFA_XSP16, literal(-6)))
        CFI (cfiCond53) ?RET_LOW load(1, XDATA, add(CFA_XSP16, literal(-5)))
        CFI (cfiCond53) ?RET_HIGH load(1, XDATA, add(CFA_XSP16, literal(-4)))
        CFI (cfiCond53) ?BRET_EXT load(1, XDATA, add(CFA_XSP16, literal(-3)))
        CFI (cfiCond53) DPL0 load(1, XDATA, add(CFA_XSP16, literal(-2)))
        CFI (cfiCond53) DPH0 load(1, XDATA, add(CFA_XSP16, literal(-1)))
        CFI (cfiCond53) CFA_SP SP+0
        CFI (cfiCond53) CFA_XSP16 add(XSP16, 81)
        CFI Block cfiPicker54 Using cfiCommon1
        CFI (cfiPicker54) NoFunction
        CFI (cfiPicker54) Picker
        MOV     R2,DPL
        MOV     R3,DPH
        LCALL   ??osal_strlen?relay
        MOV     A,R2
        ADD     A,#0x1
        MOV     ?V0 + 0,A
        MOV     A,R3
        ADDC    A,#0x0
        MOV     ?V0 + 1,A
        MOV     R0,#?V0 + 0
        RET
        CFI EndBlock cfiCond52
        CFI EndBlock cfiCond53
        CFI EndBlock cfiPicker54

        RSEG BANKED_CODE:CODE:NOROOT(0)
?Subroutine5:
        CFI Block cfiCond55 Using cfiCommon0
        CFI NoFunction
        CFI Conditional ??CrossCallReturnLabel_21
        CFI R6 load(1, XDATA, add(CFA_XSP16, literal(-14)))
        CFI VB load(1, XDATA, add(CFA_XSP16, literal(-13)))
        CFI V0 load(1, XDATA, add(CFA_XSP16, literal(-12)))
        CFI V1 load(1, XDATA, add(CFA_XSP16, literal(-11)))
        CFI V2 load(1, XDATA, add(CFA_XSP16, literal(-10)))
        CFI V3 load(1, XDATA, add(CFA_XSP16, literal(-9)))
        CFI V4 load(1, XDATA, add(CFA_XSP16, literal(-8)))
        CFI V5 load(1, XDATA, add(CFA_XSP16, literal(-7)))
        CFI R7 load(1, XDATA, add(CFA_XSP16, literal(-6)))
        CFI ?RET_LOW load(1, XDATA, add(CFA_XSP16, literal(-5)))
        CFI ?RET_HIGH load(1, XDATA, add(CFA_XSP16, literal(-4)))
        CFI ?BRET_EXT load(1, XDATA, add(CFA_XSP16, literal(-3)))
        CFI DPL0 load(1, XDATA, add(CFA_XSP16, literal(-2)))
        CFI DPH0 load(1, XDATA, add(CFA_XSP16, literal(-1)))
        CFI CFA_SP SP+0
        CFI CFA_XSP16 add(XSP16, 14)
        CFI Block cfiCond56 Using cfiCommon0
        CFI (cfiCond56) NoFunction
        CFI (cfiCond56) Conditional ??CrossCallReturnLabel_20
        CFI (cfiCond56) R6 load(1, XDATA, add(CFA_XSP16, literal(-12)))
        CFI (cfiCond56) VB load(1, XDATA, add(CFA_XSP16, literal(-11)))
        CFI (cfiCond56) V0 load(1, XDATA, add(CFA_XSP16, literal(-10)))
        CFI (cfiCond56) V1 load(1, XDATA, add(CFA_XSP16, literal(-9)))
        CFI (cfiCond56) V2 load(1, XDATA, add(CFA_XSP16, literal(-8)))
        CFI (cfiCond56) V3 load(1, XDATA, add(CFA_XSP16, literal(-7)))
        CFI (cfiCond56) R7 load(1, XDATA, add(CFA_XSP16, literal(-6)))
        CFI (cfiCond56) ?RET_LOW load(1, XDATA, add(CFA_XSP16, literal(-5)))
        CFI (cfiCond56) ?RET_HIGH load(1, XDATA, add(CFA_XSP16, literal(-4)))
        CFI (cfiCond56) ?BRET_EXT load(1, XDATA, add(CFA_XSP16, literal(-3)))
        CFI (cfiCond56) DPL0 load(1, XDATA, add(CFA_XSP16, literal(-2)))
        CFI (cfiCond56) DPH0 load(1, XDATA, add(CFA_XSP16, literal(-1)))
        CFI (cfiCond56) CFA_SP SP+0
        CFI (cfiCond56) CFA_XSP16 add(XSP16, 76)
        CFI Block cfiPicker57 Using cfiCommon1
        CFI (cfiPicker57) NoFunction
        CFI (cfiPicker57) Picker
        MOVX    @DPTR,A
        MOV     DPL,R2
        MOV     DPH,R3
        INC     DPTR
        INC     DPTR
        INC     DPTR
        INC     DPTR
        RET
        CFI EndBlock cfiCond55
        CFI EndBlock cfiCond56
        CFI EndBlock cfiPicker57
//  728 
//  729 
//  730 static uint8 SmartHomeApp_NameAddrNotMatch(uint8* data)
//  731 {
//  732   // find name and cmpare  
//  733   uint8* name;
//  734   uint8 ret;
//  735   
//  736   name = Util_GetNameFromCmd(data);
//  737   
//  738   if (name == NULL)
//  739     return 1;
//  740  
//  741   
//  742   ret = Util_StrEqual(name, Util_ReadName());
//  743   osal_mem_free(name);
//  744   return !ret;
//  745   
//  746 }
//  747 
//  748 /*********************************************************************
//  749  * @fn      SmartHomeApp_MessageMSGCB
//  750  *
//  751  * @brief   Data message processor callback.  This function processes
//  752  *          any incoming data - probably from other devices.  So, based
//  753  *          on cluster ID, perform the intended action.
//  754  *
//  755  * @param   none
//  756  *
//  757  * @return  none
//  758  */

        RSEG BANKED_CODE:CODE:NOROOT(0)
//  759 static void SmartHomeApp_MessageMSGCB( afIncomingMSGPacket_t *pkt )
SmartHomeApp_MessageMSGCB:
        CFI Block cfiBlock58 Using cfiCommon0
        CFI Function SmartHomeApp_MessageMSGCB
        CODE
//  760 {
        FUNCALL SmartHomeApp_MessageMSGCB, printf
        LOCFRAME ISTACK, 0, STACK
        LOCFRAME PSTACK, 0, STACK
        LOCFRAME XSTACK, 14, STACK
        LOCFRAME IOVERLAY, 0, STATIC
        LOCFRAME DOVERLAY, 0, STATIC
        ARGFRAME ISTACK, 0, STACK
        ARGFRAME PSTACK, 0, STACK
        ARGFRAME XSTACK, 14, STACK
        ARGFRAME IOVERLAY, 0, STATIC
        ARGFRAME DOVERLAY, 0, STATIC
        FUNCALL SmartHomeApp_MessageMSGCB, Util_StrEqual
        LOCFRAME ISTACK, 0, STACK
        LOCFRAME PSTACK, 0, STACK
        LOCFRAME XSTACK, 12, STACK
        LOCFRAME IOVERLAY, 0, STATIC
        LOCFRAME DOVERLAY, 0, STATIC
        ARGFRAME ISTACK, 0, STACK
        ARGFRAME PSTACK, 0, STACK
        ARGFRAME XSTACK, 12, STACK
        ARGFRAME IOVERLAY, 0, STATIC
        ARGFRAME DOVERLAY, 0, STATIC
        FUNCALL SmartHomeApp_MessageMSGCB, SmartHomeApp_ProcessReportNames
        LOCFRAME ISTACK, 0, STACK
        LOCFRAME PSTACK, 0, STACK
        LOCFRAME XSTACK, 12, STACK
        LOCFRAME IOVERLAY, 0, STATIC
        LOCFRAME DOVERLAY, 0, STATIC
        ARGFRAME ISTACK, 0, STACK
        ARGFRAME PSTACK, 0, STACK
        ARGFRAME XSTACK, 12, STACK
        ARGFRAME IOVERLAY, 0, STATIC
        ARGFRAME DOVERLAY, 0, STATIC
        FUNCALL SmartHomeApp_MessageMSGCB, Util_StartWith
        LOCFRAME ISTACK, 0, STACK
        LOCFRAME PSTACK, 0, STACK
        LOCFRAME XSTACK, 12, STACK
        LOCFRAME IOVERLAY, 0, STATIC
        LOCFRAME DOVERLAY, 0, STATIC
        ARGFRAME ISTACK, 0, STACK
        ARGFRAME PSTACK, 0, STACK
        ARGFRAME XSTACK, 12, STACK
        ARGFRAME IOVERLAY, 0, STATIC
        ARGFRAME DOVERLAY, 0, STATIC
        FUNCALL SmartHomeApp_MessageMSGCB, SmartHomeApp_ProcessNameAddrMapResp
        LOCFRAME ISTACK, 0, STACK
        LOCFRAME PSTACK, 0, STACK
        LOCFRAME XSTACK, 12, STACK
        LOCFRAME IOVERLAY, 0, STATIC
        LOCFRAME DOVERLAY, 0, STATIC
        ARGFRAME ISTACK, 0, STACK
        ARGFRAME PSTACK, 0, STACK
        ARGFRAME XSTACK, 12, STACK
        ARGFRAME IOVERLAY, 0, STATIC
        ARGFRAME DOVERLAY, 0, STATIC
        FUNCALL SmartHomeApp_MessageMSGCB, Util_GetNameFromCmd
        LOCFRAME ISTACK, 0, STACK
        LOCFRAME PSTACK, 0, STACK
        LOCFRAME XSTACK, 12, STACK
        LOCFRAME IOVERLAY, 0, STATIC
        LOCFRAME DOVERLAY, 0, STATIC
        ARGFRAME ISTACK, 0, STACK
        ARGFRAME PSTACK, 0, STACK
        ARGFRAME XSTACK, 12, STACK
        ARGFRAME IOVERLAY, 0, STATIC
        ARGFRAME DOVERLAY, 0, STATIC
        FUNCALL SmartHomeApp_MessageMSGCB, printf
        LOCFRAME ISTACK, 0, STACK
        LOCFRAME PSTACK, 0, STACK
        LOCFRAME XSTACK, 14, STACK
        LOCFRAME IOVERLAY, 0, STATIC
        LOCFRAME DOVERLAY, 0, STATIC
        ARGFRAME ISTACK, 0, STACK
        ARGFRAME PSTACK, 0, STACK
        ARGFRAME XSTACK, 14, STACK
        ARGFRAME IOVERLAY, 0, STATIC
        ARGFRAME DOVERLAY, 0, STATIC
        FUNCALL SmartHomeApp_MessageMSGCB, SmartHomeApp_SendNameAddrResp
        LOCFRAME ISTACK, 0, STACK
        LOCFRAME PSTACK, 0, STACK
        LOCFRAME XSTACK, 12, STACK
        LOCFRAME IOVERLAY, 0, STATIC
        LOCFRAME DOVERLAY, 0, STATIC
        ARGFRAME ISTACK, 0, STACK
        ARGFRAME PSTACK, 0, STACK
        ARGFRAME XSTACK, 12, STACK
        ARGFRAME IOVERLAY, 0, STATIC
        ARGFRAME DOVERLAY, 0, STATIC
        FUNCALL SmartHomeApp_MessageMSGCB, Util_ReadName
        LOCFRAME ISTACK, 0, STACK
        LOCFRAME PSTACK, 0, STACK
        LOCFRAME XSTACK, 12, STACK
        LOCFRAME IOVERLAY, 0, STATIC
        LOCFRAME DOVERLAY, 0, STATIC
        ARGFRAME ISTACK, 0, STACK
        ARGFRAME PSTACK, 0, STACK
        ARGFRAME XSTACK, 12, STACK
        ARGFRAME IOVERLAY, 0, STATIC
        ARGFRAME DOVERLAY, 0, STATIC
        FUNCALL SmartHomeApp_MessageMSGCB, Util_StrEqual
        LOCFRAME ISTACK, 0, STACK
        LOCFRAME PSTACK, 0, STACK
        LOCFRAME XSTACK, 12, STACK
        LOCFRAME IOVERLAY, 0, STATIC
        LOCFRAME DOVERLAY, 0, STATIC
        ARGFRAME ISTACK, 0, STACK
        ARGFRAME PSTACK, 0, STACK
        ARGFRAME XSTACK, 12, STACK
        ARGFRAME IOVERLAY, 0, STATIC
        ARGFRAME DOVERLAY, 0, STATIC
        FUNCALL SmartHomeApp_MessageMSGCB, osal_mem_free
        LOCFRAME ISTACK, 0, STACK
        LOCFRAME PSTACK, 0, STACK
        LOCFRAME XSTACK, 12, STACK
        LOCFRAME IOVERLAY, 0, STATIC
        LOCFRAME DOVERLAY, 0, STATIC
        ARGFRAME ISTACK, 0, STACK
        ARGFRAME PSTACK, 0, STACK
        ARGFRAME XSTACK, 12, STACK
        ARGFRAME IOVERLAY, 0, STATIC
        ARGFRAME DOVERLAY, 0, STATIC
        FUNCALL SmartHomeApp_MessageMSGCB, SmartHomeApp_SendNameAddrResp
        LOCFRAME ISTACK, 0, STACK
        LOCFRAME PSTACK, 0, STACK
        LOCFRAME XSTACK, 12, STACK
        LOCFRAME IOVERLAY, 0, STATIC
        LOCFRAME DOVERLAY, 0, STATIC
        ARGFRAME ISTACK, 0, STACK
        ARGFRAME PSTACK, 0, STACK
        ARGFRAME XSTACK, 12, STACK
        ARGFRAME IOVERLAY, 0, STATIC
        ARGFRAME DOVERLAY, 0, STATIC
        MOV     A,#-0xc
        LCALL   ?BANKED_ENTER_XDATA
        CFI DPH0 load(1, XDATA, add(CFA_XSP16, literal(-1)))
        CFI DPL0 load(1, XDATA, add(CFA_XSP16, literal(-2)))
        CFI ?BRET_EXT load(1, XDATA, add(CFA_XSP16, literal(-3)))
        CFI ?RET_HIGH load(1, XDATA, add(CFA_XSP16, literal(-4)))
        CFI ?RET_LOW load(1, XDATA, add(CFA_XSP16, literal(-5)))
        CFI R7 load(1, XDATA, add(CFA_XSP16, literal(-6)))
        CFI V3 load(1, XDATA, add(CFA_XSP16, literal(-7)))
        CFI V2 load(1, XDATA, add(CFA_XSP16, literal(-8)))
        CFI V1 load(1, XDATA, add(CFA_XSP16, literal(-9)))
        CFI V0 load(1, XDATA, add(CFA_XSP16, literal(-10)))
        CFI VB load(1, XDATA, add(CFA_XSP16, literal(-11)))
        CFI R6 load(1, XDATA, add(CFA_XSP16, literal(-12)))
        CFI CFA_SP SP+0
        CFI CFA_XSP16 add(XSP16, 12)
        ; Saved register size: 12
        ; Auto size: 0
        MOV     A,R2
        MOV     R6,A
        MOV     A,R3
        MOV     R7,A
//  761   switch ( pkt->clusterId )
        MOV     DPL,R6
        MOV     DPH,R7
        INC     DPTR
        INC     DPTR
        INC     DPTR
        INC     DPTR
        MOVX    A,@DPTR
        XRL     A,#0x1
        JNZ     ??SmartHomeApp_MessageMSGCB_0
        INC     DPTR
        MOVX    A,@DPTR
??SmartHomeApp_MessageMSGCB_0:
        JZ      $+5
        LJMP    ??SmartHomeApp_MessageMSGCB_1 & 0xFFFF
//  762   {
//  763     case SmartHomeApp_CLUSTERID:
//  764       pkt->cmd.Data[pkt->cmd.DataLength-1]=0;
        MOV     A,R6
        ADD     A,#0x22
        MOV     R0,A
        MOV     A,R7
        ADDC    A,#0x0
        MOV     R1,A
        MOV     ?V0 + 0,R0
        MOV     ?V0 + 1,R1
        MOV     A,R6
        ADD     A,#0x20
        LCALL   ??Subroutine15_0 & 0xFFFF
??CrossCallReturnLabel_46:
        MOV     R0,A
        INC     DPTR
        MOVX    A,@DPTR
        MOV     R1,A
        MOV     DPL,?V0 + 0
        MOV     DPH,?V0 + 1
        MOVX    A,@DPTR
        ADD     A,R0
        MOV     R0,A
        INC     DPTR
        MOVX    A,@DPTR
        ADDC    A,R1
        MOV     R1,A
        MOV     A,R0
        ADD     A,#-0x1
        MOV     DPL,A
        MOV     A,R1
        ADDC    A,#-0x1
        MOV     DPH,A
        CLR     A
        MOVX    @DPTR,A
//  765       printf("ReceiveMsg:%s\n", pkt->cmd.Data);
        ; Setup parameters for call to function printf
        MOV     DPL,?V0 + 0
        MOV     DPH,?V0 + 1
        LCALL   ?PUSH_XSTACK8_X_TWO
        CFI CFA_XSP16 add(XSP16, 14)
        MOV     R2,#`?<Constant "ReceiveMsg:%s\\n">` & 0xff
        MOV     R3,#(`?<Constant "ReceiveMsg:%s\\n">` >> 8) & 0xff
        LCALL   ?Subroutine3 & 0xFFFF
??CrossCallReturnLabel_15:
        LCALL   ?DEALLOC_XSTACK8
        CFI CFA_XSP16 add(XSP16, 12)
//  766       
//  767       if (Util_StrEqual(pkt->cmd.Data, (uint8*)"ReportNames")) {
        ; Setup parameters for call to function Util_StrEqual
        MOV     R4,#`?<Constant "ReportNames">` & 0xff
        MOV     R5,#(`?<Constant "ReportNames">` >> 8) & 0xff
        MOV     DPL,?V0 + 0
        MOV     DPH,?V0 + 1
        MOVX    A,@DPTR
        MOV     R2,A
        INC     DPTR
        MOVX    A,@DPTR
        MOV     R3,A
        LCALL   ??Subroutine14_0 & 0xFFFF
??CrossCallReturnLabel_43:
        JZ      ??SmartHomeApp_MessageMSGCB_2
//  768         SmartHomeApp_ProcessReportNames(pkt); 
        ; Setup parameters for call to function SmartHomeApp_ProcessReportNames
        MOV     A,R6
        MOV     R2,A
        MOV     A,R7
        MOV     R3,A
        LCALL   ??SmartHomeApp_ProcessReportNames?relay
        SJMP    ??SmartHomeApp_MessageMSGCB_1
//  769       } else if (Util_StartWith(pkt->cmd.Data, (uint8*)"NameAddrMap ")) {
??SmartHomeApp_MessageMSGCB_2:
        ; Setup parameters for call to function Util_StartWith
        MOV     R4,#`?<Constant "NameAddrMap ">` & 0xff
        MOV     R5,#(`?<Constant "NameAddrMap ">` >> 8) & 0xff
        LCALL   ?Subroutine8 & 0xFFFF
??CrossCallReturnLabel_27:
        LCALL   ??Util_StartWith?relay
        MOV     A,R1
        JZ      ??SmartHomeApp_MessageMSGCB_3
//  770         SmartHomeApp_ProcessNameAddrMapResp(pkt->cmd.Data); 
        ; Setup parameters for call to function SmartHomeApp_ProcessNameAddrMapResp
        LCALL   ?Subroutine8 & 0xFFFF
//  771       } else {
??CrossCallReturnLabel_28:
        LCALL   ??SmartHomeApp_ProcessNameAddrMapResp?relay
        SJMP    ??SmartHomeApp_MessageMSGCB_1
//  772         
//  773         if (SmartHomeApp_NameAddrNotMatch(pkt->cmd.Data)) { // maybe wrong cache data
??SmartHomeApp_MessageMSGCB_3:
        ; Setup parameters for call to function Util_GetNameFromCmd
        LCALL   ?Subroutine8 & 0xFFFF
??CrossCallReturnLabel_29:
        LCALL   ??Util_GetNameFromCmd?relay
        MOV     ?V0 + 0,R2
        MOV     ?V0 + 1,R3
        MOV     A,R2
        ORL     A,?V0 + 1
        JNZ     ??SmartHomeApp_MessageMSGCB_4
//  774           printf("NameAddrNotMatch %s\n", pkt->cmd.Data);
??SmartHomeApp_MessageMSGCB_5:
        ; Setup parameters for call to function printf
        LCALL   ?Subroutine13 & 0xFFFF
??CrossCallReturnLabel_37:
        LCALL   ?PUSH_XSTACK8_X_TWO
        CFI CFA_XSP16 add(XSP16, 14)
        MOV     R2,#`?<Constant "NameAddrNotMatch %s\\n">` & 0xff
        MOV     R3,#(`?<Constant "NameAddrNotMatch %s\\n">` >> 8) & 0xff
        LCALL   ?Subroutine3 & 0xFFFF
??CrossCallReturnLabel_16:
        LCALL   ?DEALLOC_XSTACK8
        CFI CFA_XSP16 add(XSP16, 12)
//  775           if (!pkt->wasBroadcast) {
        LCALL   ?Subroutine11 & 0xFFFF
??CrossCallReturnLabel_47:
        JNZ     ??SmartHomeApp_MessageMSGCB_1
//  776             SmartHomeApp_SendNameAddrResp(pkt);
        ; Setup parameters for call to function SmartHomeApp_SendNameAddrResp
        MOV     A,R6
        MOV     R2,A
        MOV     A,R7
        MOV     R3,A
        LCALL   ??SmartHomeApp_SendNameAddrResp?relay
        SJMP    ??SmartHomeApp_MessageMSGCB_1
??SmartHomeApp_MessageMSGCB_4:
        ; Setup parameters for call to function Util_StrEqual
        ; Setup parameters for call to function Util_ReadName
//  777           }
//  778           return;
//  779         }
        LCALL   ?Subroutine4 & 0xFFFF
??CrossCallReturnLabel_19:
        LCALL   ?Subroutine6 & 0xFFFF
??CrossCallReturnLabel_44:
        MOV     ?V0 + 2,A
        ; Setup parameters for call to function osal_mem_free
        MOV     R2,?V0 + 0
        MOV     R3,?V0 + 1
        LCALL   ??osal_mem_free?relay
        MOV     A,?V0 + 2
        JZ      ??SmartHomeApp_MessageMSGCB_5
//  780         
//  781         if (pkt->wasBroadcast) {
        LCALL   ?Subroutine11 & 0xFFFF
??CrossCallReturnLabel_48:
        JZ      ??SmartHomeApp_MessageMSGCB_6
//  782           SmartHomeApp_SendNameAddrResp(pkt); 
        ; Setup parameters for call to function SmartHomeApp_SendNameAddrResp
        MOV     A,R6
        MOV     R2,A
        MOV     A,R7
        MOV     R3,A
        LCALL   ??SmartHomeApp_SendNameAddrResp?relay
//  783         }
//  784         
//  785         Processor_HandleMsg(pkt->cmd.Data);
??SmartHomeApp_MessageMSGCB_6:
        ; Setup parameters for indirect call
        LCALL   ?Subroutine8 & 0xFFFF
//  786       }
//  787       
//  788 //#if defined( LCD_SUPPORTED )
//  789 //      HalLcdWriteScreen( (char*)pkt->cmd.Data, "rcvd" );
//  790 //#elif defined( WIN32 )
//  791 //      WPRINTSTR( pkt->cmd.Data );
//  792 //#endif
//  793       break;
//  794   }
??CrossCallReturnLabel_30:
        MOV     DPTR,#Processor_HandleMsg
        LCALL   ?Subroutine7 & 0xFFFF
??CrossCallReturnLabel_26:
        LCALL   ?CALL_IND
??SmartHomeApp_MessageMSGCB_1:
        LJMP    ?Subroutine0 & 0xFFFF
        CFI EndBlock cfiBlock58
//  795 }

        RSEG BANKED_CODE:CODE:NOROOT(0)
?Subroutine11:
        CFI Block cfiCond59 Using cfiCommon0
        CFI NoFunction
        CFI Conditional ??CrossCallReturnLabel_47
        CFI R6 load(1, XDATA, add(CFA_XSP16, literal(-12)))
        CFI VB load(1, XDATA, add(CFA_XSP16, literal(-11)))
        CFI V0 load(1, XDATA, add(CFA_XSP16, literal(-10)))
        CFI V1 load(1, XDATA, add(CFA_XSP16, literal(-9)))
        CFI V2 load(1, XDATA, add(CFA_XSP16, literal(-8)))
        CFI V3 load(1, XDATA, add(CFA_XSP16, literal(-7)))
        CFI R7 load(1, XDATA, add(CFA_XSP16, literal(-6)))
        CFI ?RET_LOW load(1, XDATA, add(CFA_XSP16, literal(-5)))
        CFI ?RET_HIGH load(1, XDATA, add(CFA_XSP16, literal(-4)))
        CFI ?BRET_EXT load(1, XDATA, add(CFA_XSP16, literal(-3)))
        CFI DPL0 load(1, XDATA, add(CFA_XSP16, literal(-2)))
        CFI DPH0 load(1, XDATA, add(CFA_XSP16, literal(-1)))
        CFI CFA_SP SP+0
        CFI CFA_XSP16 add(XSP16, 12)
        CFI Block cfiCond60 Using cfiCommon0
        CFI (cfiCond60) NoFunction
        CFI (cfiCond60) Conditional ??CrossCallReturnLabel_48
        CFI (cfiCond60) R6 load(1, XDATA, add(CFA_XSP16, literal(-12)))
        CFI (cfiCond60) VB load(1, XDATA, add(CFA_XSP16, literal(-11)))
        CFI (cfiCond60) V0 load(1, XDATA, add(CFA_XSP16, literal(-10)))
        CFI (cfiCond60) V1 load(1, XDATA, add(CFA_XSP16, literal(-9)))
        CFI (cfiCond60) V2 load(1, XDATA, add(CFA_XSP16, literal(-8)))
        CFI (cfiCond60) V3 load(1, XDATA, add(CFA_XSP16, literal(-7)))
        CFI (cfiCond60) R7 load(1, XDATA, add(CFA_XSP16, literal(-6)))
        CFI (cfiCond60) ?RET_LOW load(1, XDATA, add(CFA_XSP16, literal(-5)))
        CFI (cfiCond60) ?RET_HIGH load(1, XDATA, add(CFA_XSP16, literal(-4)))
        CFI (cfiCond60) ?BRET_EXT load(1, XDATA, add(CFA_XSP16, literal(-3)))
        CFI (cfiCond60) DPL0 load(1, XDATA, add(CFA_XSP16, literal(-2)))
        CFI (cfiCond60) DPH0 load(1, XDATA, add(CFA_XSP16, literal(-1)))
        CFI (cfiCond60) CFA_SP SP+0
        CFI (cfiCond60) CFA_XSP16 add(XSP16, 12)
        CFI Block cfiPicker61 Using cfiCommon1
        CFI (cfiPicker61) NoFunction
        CFI (cfiPicker61) Picker
        MOV     A,R6
        ADD     A,#0x15
        CFI EndBlock cfiCond59
        CFI EndBlock cfiCond60
        CFI EndBlock cfiPicker61
        REQUIRE ??Subroutine15_0
        ; // Fall through to label ??Subroutine15_0

        RSEG BANKED_CODE:CODE:NOROOT(0)
??Subroutine15_0:
        CFI Block cfiCond62 Using cfiCommon0
        CFI NoFunction
        CFI Conditional ??CrossCallReturnLabel_46
        CFI R6 load(1, XDATA, add(CFA_XSP16, literal(-12)))
        CFI VB load(1, XDATA, add(CFA_XSP16, literal(-11)))
        CFI V0 load(1, XDATA, add(CFA_XSP16, literal(-10)))
        CFI V1 load(1, XDATA, add(CFA_XSP16, literal(-9)))
        CFI V2 load(1, XDATA, add(CFA_XSP16, literal(-8)))
        CFI V3 load(1, XDATA, add(CFA_XSP16, literal(-7)))
        CFI R7 load(1, XDATA, add(CFA_XSP16, literal(-6)))
        CFI ?RET_LOW load(1, XDATA, add(CFA_XSP16, literal(-5)))
        CFI ?RET_HIGH load(1, XDATA, add(CFA_XSP16, literal(-4)))
        CFI ?BRET_EXT load(1, XDATA, add(CFA_XSP16, literal(-3)))
        CFI DPL0 load(1, XDATA, add(CFA_XSP16, literal(-2)))
        CFI DPH0 load(1, XDATA, add(CFA_XSP16, literal(-1)))
        CFI CFA_SP SP+0
        CFI CFA_XSP16 add(XSP16, 12)
        CFI Block cfiCond63 Using cfiCommon0
        CFI (cfiCond63) NoFunction
        CFI (cfiCond63) Conditional ??CrossCallReturnLabel_47
        CFI (cfiCond63) R6 load(1, XDATA, add(CFA_XSP16, literal(-12)))
        CFI (cfiCond63) VB load(1, XDATA, add(CFA_XSP16, literal(-11)))
        CFI (cfiCond63) V0 load(1, XDATA, add(CFA_XSP16, literal(-10)))
        CFI (cfiCond63) V1 load(1, XDATA, add(CFA_XSP16, literal(-9)))
        CFI (cfiCond63) V2 load(1, XDATA, add(CFA_XSP16, literal(-8)))
        CFI (cfiCond63) V3 load(1, XDATA, add(CFA_XSP16, literal(-7)))
        CFI (cfiCond63) R7 load(1, XDATA, add(CFA_XSP16, literal(-6)))
        CFI (cfiCond63) ?RET_LOW load(1, XDATA, add(CFA_XSP16, literal(-5)))
        CFI (cfiCond63) ?RET_HIGH load(1, XDATA, add(CFA_XSP16, literal(-4)))
        CFI (cfiCond63) ?BRET_EXT load(1, XDATA, add(CFA_XSP16, literal(-3)))
        CFI (cfiCond63) DPL0 load(1, XDATA, add(CFA_XSP16, literal(-2)))
        CFI (cfiCond63) DPH0 load(1, XDATA, add(CFA_XSP16, literal(-1)))
        CFI (cfiCond63) CFA_SP SP+0
        CFI (cfiCond63) CFA_XSP16 add(XSP16, 12)
        CFI Block cfiCond64 Using cfiCommon0
        CFI (cfiCond64) NoFunction
        CFI (cfiCond64) Conditional ??CrossCallReturnLabel_48
        CFI (cfiCond64) R6 load(1, XDATA, add(CFA_XSP16, literal(-12)))
        CFI (cfiCond64) VB load(1, XDATA, add(CFA_XSP16, literal(-11)))
        CFI (cfiCond64) V0 load(1, XDATA, add(CFA_XSP16, literal(-10)))
        CFI (cfiCond64) V1 load(1, XDATA, add(CFA_XSP16, literal(-9)))
        CFI (cfiCond64) V2 load(1, XDATA, add(CFA_XSP16, literal(-8)))
        CFI (cfiCond64) V3 load(1, XDATA, add(CFA_XSP16, literal(-7)))
        CFI (cfiCond64) R7 load(1, XDATA, add(CFA_XSP16, literal(-6)))
        CFI (cfiCond64) ?RET_LOW load(1, XDATA, add(CFA_XSP16, literal(-5)))
        CFI (cfiCond64) ?RET_HIGH load(1, XDATA, add(CFA_XSP16, literal(-4)))
        CFI (cfiCond64) ?BRET_EXT load(1, XDATA, add(CFA_XSP16, literal(-3)))
        CFI (cfiCond64) DPL0 load(1, XDATA, add(CFA_XSP16, literal(-2)))
        CFI (cfiCond64) DPH0 load(1, XDATA, add(CFA_XSP16, literal(-1)))
        CFI (cfiCond64) CFA_SP SP+0
        CFI (cfiCond64) CFA_XSP16 add(XSP16, 12)
        CFI Block cfiPicker65 Using cfiCommon1
        CFI (cfiPicker65) NoFunction
        CFI (cfiPicker65) Picker
        MOV     DPL,A
        MOV     A,R7
        CFI EndBlock cfiCond62
        CFI EndBlock cfiCond63
        CFI EndBlock cfiCond64
        CFI EndBlock cfiPicker65
        REQUIRE ??Subroutine16_0
        ; // Fall through to label ??Subroutine16_0

        RSEG BANKED_CODE:CODE:NOROOT(0)
??Subroutine16_0:
        CFI Block cfiCond66 Using cfiCommon0
        CFI NoFunction
        CFI Conditional ??CrossCallReturnLabel_45
        CFI R6 load(1, XDATA, add(CFA_XSP16, literal(-14)))
        CFI VB load(1, XDATA, add(CFA_XSP16, literal(-13)))
        CFI V0 load(1, XDATA, add(CFA_XSP16, literal(-12)))
        CFI V1 load(1, XDATA, add(CFA_XSP16, literal(-11)))
        CFI V2 load(1, XDATA, add(CFA_XSP16, literal(-10)))
        CFI V3 load(1, XDATA, add(CFA_XSP16, literal(-9)))
        CFI V4 load(1, XDATA, add(CFA_XSP16, literal(-8)))
        CFI V5 load(1, XDATA, add(CFA_XSP16, literal(-7)))
        CFI R7 load(1, XDATA, add(CFA_XSP16, literal(-6)))
        CFI ?RET_LOW load(1, XDATA, add(CFA_XSP16, literal(-5)))
        CFI ?RET_HIGH load(1, XDATA, add(CFA_XSP16, literal(-4)))
        CFI ?BRET_EXT load(1, XDATA, add(CFA_XSP16, literal(-3)))
        CFI DPL0 load(1, XDATA, add(CFA_XSP16, literal(-2)))
        CFI DPH0 load(1, XDATA, add(CFA_XSP16, literal(-1)))
        CFI CFA_SP SP+0
        CFI CFA_XSP16 add(XSP16, 14)
        CFI Block cfiCond67 Using cfiCommon0
        CFI (cfiCond67) NoFunction
        CFI (cfiCond67) Conditional ??CrossCallReturnLabel_46
        CFI (cfiCond67) R6 load(1, XDATA, add(CFA_XSP16, literal(-12)))
        CFI (cfiCond67) VB load(1, XDATA, add(CFA_XSP16, literal(-11)))
        CFI (cfiCond67) V0 load(1, XDATA, add(CFA_XSP16, literal(-10)))
        CFI (cfiCond67) V1 load(1, XDATA, add(CFA_XSP16, literal(-9)))
        CFI (cfiCond67) V2 load(1, XDATA, add(CFA_XSP16, literal(-8)))
        CFI (cfiCond67) V3 load(1, XDATA, add(CFA_XSP16, literal(-7)))
        CFI (cfiCond67) R7 load(1, XDATA, add(CFA_XSP16, literal(-6)))
        CFI (cfiCond67) ?RET_LOW load(1, XDATA, add(CFA_XSP16, literal(-5)))
        CFI (cfiCond67) ?RET_HIGH load(1, XDATA, add(CFA_XSP16, literal(-4)))
        CFI (cfiCond67) ?BRET_EXT load(1, XDATA, add(CFA_XSP16, literal(-3)))
        CFI (cfiCond67) DPL0 load(1, XDATA, add(CFA_XSP16, literal(-2)))
        CFI (cfiCond67) DPH0 load(1, XDATA, add(CFA_XSP16, literal(-1)))
        CFI (cfiCond67) CFA_SP SP+0
        CFI (cfiCond67) CFA_XSP16 add(XSP16, 12)
        CFI Block cfiCond68 Using cfiCommon0
        CFI (cfiCond68) NoFunction
        CFI (cfiCond68) Conditional ??CrossCallReturnLabel_47
        CFI (cfiCond68) R6 load(1, XDATA, add(CFA_XSP16, literal(-12)))
        CFI (cfiCond68) VB load(1, XDATA, add(CFA_XSP16, literal(-11)))
        CFI (cfiCond68) V0 load(1, XDATA, add(CFA_XSP16, literal(-10)))
        CFI (cfiCond68) V1 load(1, XDATA, add(CFA_XSP16, literal(-9)))
        CFI (cfiCond68) V2 load(1, XDATA, add(CFA_XSP16, literal(-8)))
        CFI (cfiCond68) V3 load(1, XDATA, add(CFA_XSP16, literal(-7)))
        CFI (cfiCond68) R7 load(1, XDATA, add(CFA_XSP16, literal(-6)))
        CFI (cfiCond68) ?RET_LOW load(1, XDATA, add(CFA_XSP16, literal(-5)))
        CFI (cfiCond68) ?RET_HIGH load(1, XDATA, add(CFA_XSP16, literal(-4)))
        CFI (cfiCond68) ?BRET_EXT load(1, XDATA, add(CFA_XSP16, literal(-3)))
        CFI (cfiCond68) DPL0 load(1, XDATA, add(CFA_XSP16, literal(-2)))
        CFI (cfiCond68) DPH0 load(1, XDATA, add(CFA_XSP16, literal(-1)))
        CFI (cfiCond68) CFA_SP SP+0
        CFI (cfiCond68) CFA_XSP16 add(XSP16, 12)
        CFI Block cfiCond69 Using cfiCommon0
        CFI (cfiCond69) NoFunction
        CFI (cfiCond69) Conditional ??CrossCallReturnLabel_48
        CFI (cfiCond69) R6 load(1, XDATA, add(CFA_XSP16, literal(-12)))
        CFI (cfiCond69) VB load(1, XDATA, add(CFA_XSP16, literal(-11)))
        CFI (cfiCond69) V0 load(1, XDATA, add(CFA_XSP16, literal(-10)))
        CFI (cfiCond69) V1 load(1, XDATA, add(CFA_XSP16, literal(-9)))
        CFI (cfiCond69) V2 load(1, XDATA, add(CFA_XSP16, literal(-8)))
        CFI (cfiCond69) V3 load(1, XDATA, add(CFA_XSP16, literal(-7)))
        CFI (cfiCond69) R7 load(1, XDATA, add(CFA_XSP16, literal(-6)))
        CFI (cfiCond69) ?RET_LOW load(1, XDATA, add(CFA_XSP16, literal(-5)))
        CFI (cfiCond69) ?RET_HIGH load(1, XDATA, add(CFA_XSP16, literal(-4)))
        CFI (cfiCond69) ?BRET_EXT load(1, XDATA, add(CFA_XSP16, literal(-3)))
        CFI (cfiCond69) DPL0 load(1, XDATA, add(CFA_XSP16, literal(-2)))
        CFI (cfiCond69) DPH0 load(1, XDATA, add(CFA_XSP16, literal(-1)))
        CFI (cfiCond69) CFA_SP SP+0
        CFI (cfiCond69) CFA_XSP16 add(XSP16, 12)
        CFI Block cfiPicker70 Using cfiCommon1
        CFI (cfiPicker70) NoFunction
        CFI (cfiPicker70) Picker
        ADDC    A,#0x0
        MOV     DPH,A
        MOVX    A,@DPTR
        RET
        CFI EndBlock cfiCond66
        CFI EndBlock cfiCond67
        CFI EndBlock cfiCond68
        CFI EndBlock cfiCond69
        CFI EndBlock cfiPicker70

        RSEG BANKED_CODE:CODE:NOROOT(0)
?Subroutine8:
        CFI Block cfiCond71 Using cfiCommon0
        CFI NoFunction
        CFI Conditional ??CrossCallReturnLabel_27
        CFI R6 load(1, XDATA, add(CFA_XSP16, literal(-12)))
        CFI VB load(1, XDATA, add(CFA_XSP16, literal(-11)))
        CFI V0 load(1, XDATA, add(CFA_XSP16, literal(-10)))
        CFI V1 load(1, XDATA, add(CFA_XSP16, literal(-9)))
        CFI V2 load(1, XDATA, add(CFA_XSP16, literal(-8)))
        CFI V3 load(1, XDATA, add(CFA_XSP16, literal(-7)))
        CFI R7 load(1, XDATA, add(CFA_XSP16, literal(-6)))
        CFI ?RET_LOW load(1, XDATA, add(CFA_XSP16, literal(-5)))
        CFI ?RET_HIGH load(1, XDATA, add(CFA_XSP16, literal(-4)))
        CFI ?BRET_EXT load(1, XDATA, add(CFA_XSP16, literal(-3)))
        CFI DPL0 load(1, XDATA, add(CFA_XSP16, literal(-2)))
        CFI DPH0 load(1, XDATA, add(CFA_XSP16, literal(-1)))
        CFI CFA_SP SP+0
        CFI CFA_XSP16 add(XSP16, 12)
        CFI Block cfiCond72 Using cfiCommon0
        CFI (cfiCond72) NoFunction
        CFI (cfiCond72) Conditional ??CrossCallReturnLabel_28
        CFI (cfiCond72) R6 load(1, XDATA, add(CFA_XSP16, literal(-12)))
        CFI (cfiCond72) VB load(1, XDATA, add(CFA_XSP16, literal(-11)))
        CFI (cfiCond72) V0 load(1, XDATA, add(CFA_XSP16, literal(-10)))
        CFI (cfiCond72) V1 load(1, XDATA, add(CFA_XSP16, literal(-9)))
        CFI (cfiCond72) V2 load(1, XDATA, add(CFA_XSP16, literal(-8)))
        CFI (cfiCond72) V3 load(1, XDATA, add(CFA_XSP16, literal(-7)))
        CFI (cfiCond72) R7 load(1, XDATA, add(CFA_XSP16, literal(-6)))
        CFI (cfiCond72) ?RET_LOW load(1, XDATA, add(CFA_XSP16, literal(-5)))
        CFI (cfiCond72) ?RET_HIGH load(1, XDATA, add(CFA_XSP16, literal(-4)))
        CFI (cfiCond72) ?BRET_EXT load(1, XDATA, add(CFA_XSP16, literal(-3)))
        CFI (cfiCond72) DPL0 load(1, XDATA, add(CFA_XSP16, literal(-2)))
        CFI (cfiCond72) DPH0 load(1, XDATA, add(CFA_XSP16, literal(-1)))
        CFI (cfiCond72) CFA_SP SP+0
        CFI (cfiCond72) CFA_XSP16 add(XSP16, 12)
        CFI Block cfiCond73 Using cfiCommon0
        CFI (cfiCond73) NoFunction
        CFI (cfiCond73) Conditional ??CrossCallReturnLabel_29
        CFI (cfiCond73) R6 load(1, XDATA, add(CFA_XSP16, literal(-12)))
        CFI (cfiCond73) VB load(1, XDATA, add(CFA_XSP16, literal(-11)))
        CFI (cfiCond73) V0 load(1, XDATA, add(CFA_XSP16, literal(-10)))
        CFI (cfiCond73) V1 load(1, XDATA, add(CFA_XSP16, literal(-9)))
        CFI (cfiCond73) V2 load(1, XDATA, add(CFA_XSP16, literal(-8)))
        CFI (cfiCond73) V3 load(1, XDATA, add(CFA_XSP16, literal(-7)))
        CFI (cfiCond73) R7 load(1, XDATA, add(CFA_XSP16, literal(-6)))
        CFI (cfiCond73) ?RET_LOW load(1, XDATA, add(CFA_XSP16, literal(-5)))
        CFI (cfiCond73) ?RET_HIGH load(1, XDATA, add(CFA_XSP16, literal(-4)))
        CFI (cfiCond73) ?BRET_EXT load(1, XDATA, add(CFA_XSP16, literal(-3)))
        CFI (cfiCond73) DPL0 load(1, XDATA, add(CFA_XSP16, literal(-2)))
        CFI (cfiCond73) DPH0 load(1, XDATA, add(CFA_XSP16, literal(-1)))
        CFI (cfiCond73) CFA_SP SP+0
        CFI (cfiCond73) CFA_XSP16 add(XSP16, 12)
        CFI Block cfiCond74 Using cfiCommon0
        CFI (cfiCond74) NoFunction
        CFI (cfiCond74) Conditional ??CrossCallReturnLabel_30
        CFI (cfiCond74) R6 load(1, XDATA, add(CFA_XSP16, literal(-12)))
        CFI (cfiCond74) VB load(1, XDATA, add(CFA_XSP16, literal(-11)))
        CFI (cfiCond74) V0 load(1, XDATA, add(CFA_XSP16, literal(-10)))
        CFI (cfiCond74) V1 load(1, XDATA, add(CFA_XSP16, literal(-9)))
        CFI (cfiCond74) V2 load(1, XDATA, add(CFA_XSP16, literal(-8)))
        CFI (cfiCond74) V3 load(1, XDATA, add(CFA_XSP16, literal(-7)))
        CFI (cfiCond74) R7 load(1, XDATA, add(CFA_XSP16, literal(-6)))
        CFI (cfiCond74) ?RET_LOW load(1, XDATA, add(CFA_XSP16, literal(-5)))
        CFI (cfiCond74) ?RET_HIGH load(1, XDATA, add(CFA_XSP16, literal(-4)))
        CFI (cfiCond74) ?BRET_EXT load(1, XDATA, add(CFA_XSP16, literal(-3)))
        CFI (cfiCond74) DPL0 load(1, XDATA, add(CFA_XSP16, literal(-2)))
        CFI (cfiCond74) DPH0 load(1, XDATA, add(CFA_XSP16, literal(-1)))
        CFI (cfiCond74) CFA_SP SP+0
        CFI (cfiCond74) CFA_XSP16 add(XSP16, 12)
        CFI Block cfiPicker75 Using cfiCommon1
        CFI (cfiPicker75) NoFunction
        CFI (cfiPicker75) Picker
        LCALL   ?Subroutine13 & 0xFFFF
??CrossCallReturnLabel_38:
        MOVX    A,@DPTR
        MOV     R2,A
        INC     DPTR
        MOVX    A,@DPTR
        MOV     R3,A
        RET
        CFI EndBlock cfiCond71
        CFI EndBlock cfiCond72
        CFI EndBlock cfiCond73
        CFI EndBlock cfiCond74
        CFI EndBlock cfiPicker75

        RSEG BANKED_CODE:CODE:NOROOT(0)
?Subroutine13:
        CFI Block cfiCond76 Using cfiCommon0
        CFI NoFunction
        CFI Conditional ??CrossCallReturnLabel_37
        CFI R6 load(1, XDATA, add(CFA_XSP16, literal(-12)))
        CFI VB load(1, XDATA, add(CFA_XSP16, literal(-11)))
        CFI V0 load(1, XDATA, add(CFA_XSP16, literal(-10)))
        CFI V1 load(1, XDATA, add(CFA_XSP16, literal(-9)))
        CFI V2 load(1, XDATA, add(CFA_XSP16, literal(-8)))
        CFI V3 load(1, XDATA, add(CFA_XSP16, literal(-7)))
        CFI R7 load(1, XDATA, add(CFA_XSP16, literal(-6)))
        CFI ?RET_LOW load(1, XDATA, add(CFA_XSP16, literal(-5)))
        CFI ?RET_HIGH load(1, XDATA, add(CFA_XSP16, literal(-4)))
        CFI ?BRET_EXT load(1, XDATA, add(CFA_XSP16, literal(-3)))
        CFI DPL0 load(1, XDATA, add(CFA_XSP16, literal(-2)))
        CFI DPH0 load(1, XDATA, add(CFA_XSP16, literal(-1)))
        CFI CFA_SP SP+0
        CFI CFA_XSP16 add(XSP16, 12)
        CFI Block cfiCond77 Using cfiCommon0
        CFI (cfiCond77) NoFunction
        CFI (cfiCond77) Conditional ??CrossCallReturnLabel_38, ??CrossCallReturnLabel_27
        CFI (cfiCond77) R6 load(1, XDATA, add(CFA_XSP16, literal(-12)))
        CFI (cfiCond77) VB load(1, XDATA, add(CFA_XSP16, literal(-11)))
        CFI (cfiCond77) V0 load(1, XDATA, add(CFA_XSP16, literal(-10)))
        CFI (cfiCond77) V1 load(1, XDATA, add(CFA_XSP16, literal(-9)))
        CFI (cfiCond77) V2 load(1, XDATA, add(CFA_XSP16, literal(-8)))
        CFI (cfiCond77) V3 load(1, XDATA, add(CFA_XSP16, literal(-7)))
        CFI (cfiCond77) R7 load(1, XDATA, add(CFA_XSP16, literal(-6)))
        CFI (cfiCond77) ?RET_LOW load(1, XDATA, add(CFA_XSP16, literal(-5)))
        CFI (cfiCond77) ?RET_HIGH load(1, XDATA, add(CFA_XSP16, literal(-4)))
        CFI (cfiCond77) ?BRET_EXT load(1, XDATA, add(CFA_XSP16, literal(-3)))
        CFI (cfiCond77) DPL0 load(1, XDATA, add(CFA_XSP16, literal(-2)))
        CFI (cfiCond77) DPH0 load(1, XDATA, add(CFA_XSP16, literal(-1)))
        CFI (cfiCond77) CFA_SP SP+0
        CFI (cfiCond77) CFA_XSP16 add(XSP16, 12)
        CFI Block cfiCond78 Using cfiCommon0
        CFI (cfiCond78) NoFunction
        CFI (cfiCond78) Conditional ??CrossCallReturnLabel_38, ??CrossCallReturnLabel_28
        CFI (cfiCond78) R6 load(1, XDATA, add(CFA_XSP16, literal(-12)))
        CFI (cfiCond78) VB load(1, XDATA, add(CFA_XSP16, literal(-11)))
        CFI (cfiCond78) V0 load(1, XDATA, add(CFA_XSP16, literal(-10)))
        CFI (cfiCond78) V1 load(1, XDATA, add(CFA_XSP16, literal(-9)))
        CFI (cfiCond78) V2 load(1, XDATA, add(CFA_XSP16, literal(-8)))
        CFI (cfiCond78) V3 load(1, XDATA, add(CFA_XSP16, literal(-7)))
        CFI (cfiCond78) R7 load(1, XDATA, add(CFA_XSP16, literal(-6)))
        CFI (cfiCond78) ?RET_LOW load(1, XDATA, add(CFA_XSP16, literal(-5)))
        CFI (cfiCond78) ?RET_HIGH load(1, XDATA, add(CFA_XSP16, literal(-4)))
        CFI (cfiCond78) ?BRET_EXT load(1, XDATA, add(CFA_XSP16, literal(-3)))
        CFI (cfiCond78) DPL0 load(1, XDATA, add(CFA_XSP16, literal(-2)))
        CFI (cfiCond78) DPH0 load(1, XDATA, add(CFA_XSP16, literal(-1)))
        CFI (cfiCond78) CFA_SP SP+0
        CFI (cfiCond78) CFA_XSP16 add(XSP16, 12)
        CFI Block cfiCond79 Using cfiCommon0
        CFI (cfiCond79) NoFunction
        CFI (cfiCond79) Conditional ??CrossCallReturnLabel_38, ??CrossCallReturnLabel_29
        CFI (cfiCond79) R6 load(1, XDATA, add(CFA_XSP16, literal(-12)))
        CFI (cfiCond79) VB load(1, XDATA, add(CFA_XSP16, literal(-11)))
        CFI (cfiCond79) V0 load(1, XDATA, add(CFA_XSP16, literal(-10)))
        CFI (cfiCond79) V1 load(1, XDATA, add(CFA_XSP16, literal(-9)))
        CFI (cfiCond79) V2 load(1, XDATA, add(CFA_XSP16, literal(-8)))
        CFI (cfiCond79) V3 load(1, XDATA, add(CFA_XSP16, literal(-7)))
        CFI (cfiCond79) R7 load(1, XDATA, add(CFA_XSP16, literal(-6)))
        CFI (cfiCond79) ?RET_LOW load(1, XDATA, add(CFA_XSP16, literal(-5)))
        CFI (cfiCond79) ?RET_HIGH load(1, XDATA, add(CFA_XSP16, literal(-4)))
        CFI (cfiCond79) ?BRET_EXT load(1, XDATA, add(CFA_XSP16, literal(-3)))
        CFI (cfiCond79) DPL0 load(1, XDATA, add(CFA_XSP16, literal(-2)))
        CFI (cfiCond79) DPH0 load(1, XDATA, add(CFA_XSP16, literal(-1)))
        CFI (cfiCond79) CFA_SP SP+0
        CFI (cfiCond79) CFA_XSP16 add(XSP16, 12)
        CFI Block cfiCond80 Using cfiCommon0
        CFI (cfiCond80) NoFunction
        CFI (cfiCond80) Conditional ??CrossCallReturnLabel_38, ??CrossCallReturnLabel_30
        CFI (cfiCond80) R6 load(1, XDATA, add(CFA_XSP16, literal(-12)))
        CFI (cfiCond80) VB load(1, XDATA, add(CFA_XSP16, literal(-11)))
        CFI (cfiCond80) V0 load(1, XDATA, add(CFA_XSP16, literal(-10)))
        CFI (cfiCond80) V1 load(1, XDATA, add(CFA_XSP16, literal(-9)))
        CFI (cfiCond80) V2 load(1, XDATA, add(CFA_XSP16, literal(-8)))
        CFI (cfiCond80) V3 load(1, XDATA, add(CFA_XSP16, literal(-7)))
        CFI (cfiCond80) R7 load(1, XDATA, add(CFA_XSP16, literal(-6)))
        CFI (cfiCond80) ?RET_LOW load(1, XDATA, add(CFA_XSP16, literal(-5)))
        CFI (cfiCond80) ?RET_HIGH load(1, XDATA, add(CFA_XSP16, literal(-4)))
        CFI (cfiCond80) ?BRET_EXT load(1, XDATA, add(CFA_XSP16, literal(-3)))
        CFI (cfiCond80) DPL0 load(1, XDATA, add(CFA_XSP16, literal(-2)))
        CFI (cfiCond80) DPH0 load(1, XDATA, add(CFA_XSP16, literal(-1)))
        CFI (cfiCond80) CFA_SP SP+0
        CFI (cfiCond80) CFA_XSP16 add(XSP16, 12)
        CFI Block cfiPicker81 Using cfiCommon1
        CFI (cfiPicker81) NoFunction
        CFI (cfiPicker81) Picker
        MOV     A,R6
        ADD     A,#0x22
        MOV     DPL,A
        MOV     A,R7
        ADDC    A,#0x0
        MOV     DPH,A
        RET
        CFI EndBlock cfiCond76
        CFI EndBlock cfiCond77
        CFI EndBlock cfiCond78
        CFI EndBlock cfiCond79
        CFI EndBlock cfiCond80
        CFI EndBlock cfiPicker81

        RSEG BANKED_CODE:CODE:NOROOT(0)
?Subroutine4:
        CFI Block cfiCond82 Using cfiCommon0
        CFI NoFunction
        CFI Conditional ??CrossCallReturnLabel_17
        CFI R6 load(1, XDATA, add(CFA_XSP16, literal(-10)))
        CFI VB load(1, XDATA, add(CFA_XSP16, literal(-9)))
        CFI V0 load(1, XDATA, add(CFA_XSP16, literal(-8)))
        CFI V1 load(1, XDATA, add(CFA_XSP16, literal(-7)))
        CFI R7 load(1, XDATA, add(CFA_XSP16, literal(-6)))
        CFI ?RET_LOW load(1, XDATA, add(CFA_XSP16, literal(-5)))
        CFI ?RET_HIGH load(1, XDATA, add(CFA_XSP16, literal(-4)))
        CFI ?BRET_EXT load(1, XDATA, add(CFA_XSP16, literal(-3)))
        CFI DPL0 load(1, XDATA, add(CFA_XSP16, literal(-2)))
        CFI DPH0 load(1, XDATA, add(CFA_XSP16, literal(-1)))
        CFI CFA_SP SP+0
        CFI CFA_XSP16 add(XSP16, 39)
        CFI Block cfiCond83 Using cfiCommon0
        CFI (cfiCond83) NoFunction
        CFI (cfiCond83) Conditional ??CrossCallReturnLabel_18
        CFI (cfiCond83) R6 load(1, XDATA, add(CFA_XSP16, literal(-10)))
        CFI (cfiCond83) VB load(1, XDATA, add(CFA_XSP16, literal(-9)))
        CFI (cfiCond83) V0 load(1, XDATA, add(CFA_XSP16, literal(-8)))
        CFI (cfiCond83) V1 load(1, XDATA, add(CFA_XSP16, literal(-7)))
        CFI (cfiCond83) R7 load(1, XDATA, add(CFA_XSP16, literal(-6)))
        CFI (cfiCond83) ?RET_LOW load(1, XDATA, add(CFA_XSP16, literal(-5)))
        CFI (cfiCond83) ?RET_HIGH load(1, XDATA, add(CFA_XSP16, literal(-4)))
        CFI (cfiCond83) ?BRET_EXT load(1, XDATA, add(CFA_XSP16, literal(-3)))
        CFI (cfiCond83) DPL0 load(1, XDATA, add(CFA_XSP16, literal(-2)))
        CFI (cfiCond83) DPH0 load(1, XDATA, add(CFA_XSP16, literal(-1)))
        CFI (cfiCond83) CFA_SP SP+0
        CFI (cfiCond83) CFA_XSP16 add(XSP16, 39)
        CFI Block cfiCond84 Using cfiCommon0
        CFI (cfiCond84) NoFunction
        CFI (cfiCond84) Conditional ??CrossCallReturnLabel_19
        CFI (cfiCond84) R6 load(1, XDATA, add(CFA_XSP16, literal(-12)))
        CFI (cfiCond84) VB load(1, XDATA, add(CFA_XSP16, literal(-11)))
        CFI (cfiCond84) V0 load(1, XDATA, add(CFA_XSP16, literal(-10)))
        CFI (cfiCond84) V1 load(1, XDATA, add(CFA_XSP16, literal(-9)))
        CFI (cfiCond84) V2 load(1, XDATA, add(CFA_XSP16, literal(-8)))
        CFI (cfiCond84) V3 load(1, XDATA, add(CFA_XSP16, literal(-7)))
        CFI (cfiCond84) R7 load(1, XDATA, add(CFA_XSP16, literal(-6)))
        CFI (cfiCond84) ?RET_LOW load(1, XDATA, add(CFA_XSP16, literal(-5)))
        CFI (cfiCond84) ?RET_HIGH load(1, XDATA, add(CFA_XSP16, literal(-4)))
        CFI (cfiCond84) ?BRET_EXT load(1, XDATA, add(CFA_XSP16, literal(-3)))
        CFI (cfiCond84) DPL0 load(1, XDATA, add(CFA_XSP16, literal(-2)))
        CFI (cfiCond84) DPH0 load(1, XDATA, add(CFA_XSP16, literal(-1)))
        CFI (cfiCond84) CFA_SP SP+0
        CFI (cfiCond84) CFA_XSP16 add(XSP16, 12)
        CFI Block cfiPicker85 Using cfiCommon1
        CFI (cfiPicker85) NoFunction
        CFI (cfiPicker85) Picker
        LCALL   ??Util_ReadName?relay
        MOV     A,R2
        MOV     R4,A
        MOV     A,R3
        MOV     R5,A
        RET
        CFI EndBlock cfiCond82
        CFI EndBlock cfiCond83
        CFI EndBlock cfiCond84
        CFI EndBlock cfiPicker85

        RSEG BANK_RELAYS:CODE:REORDER:NOROOT(0)
??SmartHomeApp_Init?relay:
        LCALL   ?BDISPATCH
        DATA
        DC24    SmartHomeApp_Init

        RSEG BANK_RELAYS:CODE:REORDER:NOROOT(0)
??SmartHome_SendCmd?relay:
        LCALL   ?BDISPATCH
        DATA
        DC24    SmartHome_SendCmd

        RSEG BANK_RELAYS:CODE:REORDER:NOROOT(0)
??processUartCB?relay:
        LCALL   ?BDISPATCH
        DATA
        DC24    processUartCB

        RSEG BANK_RELAYS:CODE:REORDER:NOROOT(0)
??SmartHomeApp_CallBack?relay:
        LCALL   ?BDISPATCH
        DATA
        DC24    SmartHomeApp_CallBack

        RSEG BANK_RELAYS:CODE:REORDER:NOROOT(0)
??SmartHomeApp_ProcessEvent?relay:
        LCALL   ?BDISPATCH
        DATA
        DC24    SmartHomeApp_ProcessEvent

        RSEG BANK_RELAYS:CODE:REORDER:NOROOT(0)
??SmartHomeApp_ProcessReportNames?relay:
        LCALL   ?BDISPATCH
        DATA
        DC24    SmartHomeApp_ProcessReportNames

        RSEG BANK_RELAYS:CODE:REORDER:NOROOT(0)
??SmartHomeApp_ProcessNameAddrMapResp?relay:
        LCALL   ?BDISPATCH
        DATA
        DC24    SmartHomeApp_ProcessNameAddrMapResp

        RSEG BANK_RELAYS:CODE:REORDER:NOROOT(0)
??SmartHomeApp_SendNameAddrResp?relay:
        LCALL   ?BDISPATCH
        DATA
        DC24    SmartHomeApp_SendNameAddrResp

        RSEG BANK_RELAYS:CODE:REORDER:NOROOT(0)
??SmartHomeApp_MessageMSGCB?relay:
        LCALL   ?BDISPATCH
        DATA
        DC24    SmartHomeApp_MessageMSGCB

        RSEG XDATA_ROM_C:CONST:REORDER:NOROOT(0)
        DATA8
`?<Constant "My name is %s\\n">`:
        DB "My name is %s\012"

        RSEG XDATA_ROM_C:CONST:REORDER:NOROOT(0)
        DATA8
`?<Constant "DoorLight">`:
        DB "DoorLight"

        RSEG XDATA_ROM_C:CONST:REORDER:NOROOT(0)
        DATA8
`?<Constant "DoorSensor">`:
        DB "DoorSensor"

        RSEG XDATA_ROM_C:CONST:REORDER:NOROOT(0)
        DATA8
`?<Constant "ERROR: Unkown name: %s\\n">`:
        DB "ERROR: Unkown name: %s\012"

        RSEG XDATA_ROM_C:CONST:REORDER:NOROOT(0)
        DATA8
`?<Constant "SendCmdFailed:%s\\n">`:
        DB "SendCmdFailed:%s\012"

        RSEG XDATA_ROM_C:CONST:REORDER:NOROOT(0)
        DATA8
`?<Constant "ReadName">`:
        DB "ReadName"

        RSEG XDATA_ROM_C:CONST:REORDER:NOROOT(0)
        DATA8
`?<Constant "ReadName:%s\\n">`:
        DB "ReadName:%s\012"

        RSEG XDATA_ROM_C:CONST:REORDER:NOROOT(0)
        DATA8
`?<Constant "WriteName ">`:
        DB "WriteName "

        RSEG XDATA_ROM_C:CONST:REORDER:NOROOT(0)
        DATA8
`?<Constant "WriteName:%s\\n">`:
        DB "WriteName:%s\012"

        RSEG XDATA_ROM_C:CONST:REORDER:NOROOT(0)
        DATA8
`?<Constant "SystemReset">`:
        DB "SystemReset"

        RSEG XDATA_ROM_C:CONST:REORDER:NOROOT(0)
        DATA8
`?<Constant "SendCmd ">`:
        DB "SendCmd "

        RSEG XDATA_ROM_C:CONST:REORDER:NOROOT(0)
        DATA8
`?<Constant "Unkown Cmd:%s\\n">`:
        DB "Unkown Cmd:%s\012"

        RSEG XDATA_ROM_C:CONST:REORDER:NOROOT(0)
        DATA8
`?<Constant "SendMsgFailed:%X\\n">`:
        DB "SendMsgFailed:%X\012"

        RSEG XDATA_ROM_C:CONST:REORDER:NOROOT(0)
        DATA8
`?<Constant "SendMsgOK:%X\\n">`:
        DB "SendMsgOK:%X\012"

        RSEG XDATA_ROM_C:CONST:REORDER:NOROOT(0)
        DATA8
`?<Constant "Addr=%04X, ParentAddr...">`:
        DB "Addr=%04X, ParentAddr=%04X\012"

        RSEG XDATA_ROM_C:CONST:REORDER:NOROOT(0)
        DATA8
`?<Constant "ReportNamesResp %s %0...">`:
        DB "ReportNamesResp %s %04X %04X"

        RSEG XDATA_ROM_C:CONST:REORDER:NOROOT(0)
        DATA8
`?<Constant "send ReportNamesResp ...">`:
        DB "send ReportNamesResp error %s\012"

        RSEG XDATA_ROM_C:CONST:REORDER:NOROOT(0)
        DATA8
`?<Constant "Invalid name addr map...">`:
        DB "Invalid name addr map: %s\012"

        RSEG XDATA_ROM_C:CONST:REORDER:NOROOT(0)
        DATA8
`?<Constant "NameAddrMap %04X %s">`:
        DB "NameAddrMap %04X %s"

        RSEG XDATA_ROM_C:CONST:REORDER:NOROOT(0)
        DATA8
`?<Constant "SmartHomeApp_SendName...">`:
        DB "SmartHomeApp_SendNameAddrResp error %s\012"

        RSEG XDATA_ROM_C:CONST:REORDER:NOROOT(0)
        DATA8
`?<Constant "ReceiveMsg:%s\\n">`:
        DB "ReceiveMsg:%s\012"

        RSEG XDATA_ROM_C:CONST:REORDER:NOROOT(0)
        DATA8
`?<Constant "ReportNames">`:
        DB "ReportNames"

        RSEG XDATA_ROM_C:CONST:REORDER:NOROOT(0)
        DATA8
`?<Constant "NameAddrMap ">`:
        DB "NameAddrMap "

        RSEG XDATA_ROM_C:CONST:REORDER:NOROOT(0)
        DATA8
`?<Constant "NameAddrNotMatch %s\\n">`:
        DB "NameAddrNotMatch %s\012"

        END
//  796 
//  797 /*********************************************************************
//  798  * @fn      SmartHomeApp_SendTheMessage
//  799  *
//  800  * @brief   Send "the" message.
//  801  *
//  802  * @param   none
//  803  *
//  804  * @return  none
//  805  */
//  806 //static void SmartHomeApp_SendTheMessage( void )
//  807 //{
//  808 //  char theMessageData[] = "Hello World";
//  809 //
//  810 //  if ( AF_DataRequest( &SmartHomeApp_DstAddr, &SmartHomeApp_epDesc,
//  811 //                       SmartHomeApp_CLUSTERID,
//  812 //                       (byte)osal_strlen( theMessageData ) + 1,
//  813 //                       (byte *)&theMessageData,
//  814 //                       &SmartHomeApp_TransID,
//  815 //                       AF_DISCV_ROUTE, AF_DEFAULT_RADIUS ) == afStatus_SUCCESS )
//  816 //  {
//  817 //    // Successfully requested to be sent.
//  818 //  }
//  819 //  else
//  820 //  {
//  821 //    // Error occurred in request to send.
//  822 //  }
//  823 //}
//  824 
//  825 
//  826 /*********************************************************************
//  827  */
// 
// 2 093 bytes in segment BANKED_CODE
//    54 bytes in segment BANK_RELAYS
//     2 bytes in segment SFR_AN
//   443 bytes in segment XDATA_ROM_C
//    99 bytes in segment XDATA_Z
// 
// 2 147 bytes of CODE  memory
//   443 bytes of CONST memory
//     0 bytes of DATA  memory (+ 2 bytes shared)
//    99 bytes of XDATA memory
//
//Errors: none
//Warnings: none
