###############################################################################
#                                                                             #
# IAR C/C++ Compiler V8.10.3.10338/W32 for 8051         04/Jul/2018  22:34:46 #
# Copyright 2004-2011 IAR Systems AB.                                         #
#                                                                             #
#    Core               =  plain                                              #
#    Code model         =  banked                                             #
#    Data model         =  large                                              #
#    Calling convention =  xdata reentrant                                    #
#    Constant location  =  data_rom                                           #
#    Dptr setup         =  1,16                                               #
#    Source file        =  C:\ZigBee\SmartHomeApp\Projects\zstack\Samples\Sma #
#                          rtHomeApp\Source\Utils.c                           #
#    Command line       =  -f C:\ZigBee\SmartHomeApp\Projects\zstack\Samples\ #
#                          SmartHomeApp\CC2530DB\..\..\..\Tools\CC2530DB\f8wC #
#                          oord.cfg (-DCPU32MHZ -DROOT=__near_func            #
#                          -DMAC_CFG_APP_PENDING_QUEUE=TRUE                   #
#                          -DMAC_CFG_TX_DATA_MAX=5 -DMAC_CFG_TX_MAX=8         #
#                          -DMAC_CFG_RX_MAX=5 -DZDO_COORDINATOR -DRTR_NWK)    #
#                          -f C:\ZigBee\SmartHomeApp\Projects\zstack\Samples\ #
#                          SmartHomeApp\CC2530DB\..\..\..\Tools\CC2530DB\f8wC #
#                          onfig.cfg (-DZIGBEEPRO -DSECURE=0                  #
#                          -DZG_SECURE_DYNAMIC=0 -DREFLECTOR                  #
#                          -DDEFAULT_CHANLIST=0x00002000                      #
#                          -DZDAPP_CONFIG_PAN_ID=0xF227                       #
#                          -DNWK_START_DELAY=100 -DEXTENDED_JOINING_RANDOM_MA #
#                          SK=0x007F -DBEACON_REQUEST_DELAY=100               #
#                          -DBEACON_REQ_DELAY_MASK=0x00FF                     #
#                          -DLINK_STATUS_JITTER_MASK=0x007F                   #
#                          -DROUTE_EXPIRY_TIME=30 -DAPSC_ACK_WAIT_DURATION_PO #
#                          LLED=3000 -DNWK_INDIRECT_MSG_TIMEOUT=7             #
#                          -DMAX_RREQ_ENTRIES=8 -DAPSC_MAX_FRAME_RETRIES=3    #
#                          -DNWK_MAX_DATA_RETRIES=2                           #
#                          -DMAX_POLL_FAILURE_RETRIES=2 -DMAX_BCAST=9         #
#                          -DAPS_MAX_GROUPS=16 -DMAX_RTG_ENTRIES=40           #
#                          -DNWK_MAX_BINDING_ENTRIES=4                        #
#                          -DMAX_BINDING_CLUSTER_IDS=4 "-DDEFAULT_KEY={0x01,  #
#                          0x03, 0x05, 0x07, 0x09, 0x0B, 0x0D, 0x0F, 0x00,    #
#                          0x02, 0x04, 0x06, 0x08, 0x0A, 0x0C, 0x0D}"         #
#                          -DMAC_MAX_FRAME_SIZE=116                           #
#                          -DZDNWKMGR_MIN_TRANSMISSIONS=20 "-DCONST=const     #
#                          __code" -DGENERIC=__generic                        #
#                          -DRFD_RCVC_ALWAYS_ON=FALSE -DPOLL_RATE=1000        #
#                          -DQUEUED_POLL_RATE=100 -DRESPONSE_POLL_RATE=100)   #
#                          -DREJOIN_POLL_RATE=440 C:\ZigBee\SmartHomeApp\Proj #
#                          ects\zstack\Samples\SmartHomeApp\Source\Utils.c    #
#                          -D ZTOOL_P1 -D MT_TASK -D MT_SYS_FUNC -D           #
#                          MT_ZDO_FUNC -D xLCD_SUPPORTED=DEBUG -lC            #
#                          C:\ZigBee\SmartHomeApp\Projects\zstack\Samples\Sma #
#                          rtHomeApp\CC2530DB\CoordinatorEB\List\ -lA         #
#                          C:\ZigBee\SmartHomeApp\Projects\zstack\Samples\Sma #
#                          rtHomeApp\CC2530DB\CoordinatorEB\List\             #
#                          --diag_suppress Pe001,Pa010 -o                     #
#                          C:\ZigBee\SmartHomeApp\Projects\zstack\Samples\Sma #
#                          rtHomeApp\CC2530DB\CoordinatorEB\Obj\ -e           #
#                          --no_code_motion --debug --core=plain --dptr=16,1  #
#                          --data_model=large --code_model=banked             #
#                          --calling_convention=xdata_reentrant               #
#                          --place_constants=data_rom --nr_virtual_regs 16    #
#                          -I C:\ZigBee\SmartHomeApp\Projects\zstack\Samples\ #
#                          SmartHomeApp\CC2530DB\ -I                          #
#                          C:\ZigBee\SmartHomeApp\Projects\zstack\Samples\Sma #
#                          rtHomeApp\CC2530DB\..\Source\ -I                   #
#                          C:\ZigBee\SmartHomeApp\Projects\zstack\Samples\Sma #
#                          rtHomeApp\CC2530DB\..\..\..\ZMain\TI2530DB\ -I     #
#                          C:\ZigBee\SmartHomeApp\Projects\zstack\Samples\Sma #
#                          rtHomeApp\CC2530DB\..\..\..\..\..\Components\hal\i #
#                          nclude\ -I C:\ZigBee\SmartHomeApp\Projects\zstack\ #
#                          Samples\SmartHomeApp\CC2530DB\..\..\..\..\..\Compo #
#                          nents\hal\target\CC2530EB\ -I                      #
#                          C:\ZigBee\SmartHomeApp\Projects\zstack\Samples\Sma #
#                          rtHomeApp\CC2530DB\..\..\..\..\..\Components\mac\i #
#                          nclude\ -I C:\ZigBee\SmartHomeApp\Projects\zstack\ #
#                          Samples\SmartHomeApp\CC2530DB\..\..\..\..\..\Compo #
#                          nents\mac\high_level\ -I                           #
#                          C:\ZigBee\SmartHomeApp\Projects\zstack\Samples\Sma #
#                          rtHomeApp\CC2530DB\..\..\..\..\..\Components\mac\l #
#                          ow_level\srf04\ -I C:\ZigBee\SmartHomeApp\Projects #
#                          \zstack\Samples\SmartHomeApp\CC2530DB\..\..\..\..\ #
#                          ..\Components\mac\low_level\srf04\single_chip\ -I  #
#                          C:\ZigBee\SmartHomeApp\Projects\zstack\Samples\Sma #
#                          rtHomeApp\CC2530DB\..\..\..\..\..\Components\mt\   #
#                          -I C:\ZigBee\SmartHomeApp\Projects\zstack\Samples\ #
#                          SmartHomeApp\CC2530DB\..\..\..\..\..\Components\os #
#                          al\include\ -I C:\ZigBee\SmartHomeApp\Projects\zst #
#                          ack\Samples\SmartHomeApp\CC2530DB\..\..\..\..\..\C #
#                          omponents\services\saddr\ -I                       #
#                          C:\ZigBee\SmartHomeApp\Projects\zstack\Samples\Sma #
#                          rtHomeApp\CC2530DB\..\..\..\..\..\Components\servi #
#                          ces\sdata\ -I C:\ZigBee\SmartHomeApp\Projects\zsta #
#                          ck\Samples\SmartHomeApp\CC2530DB\..\..\..\..\..\Co #
#                          mponents\stack\af\ -I C:\ZigBee\SmartHomeApp\Proje #
#                          cts\zstack\Samples\SmartHomeApp\CC2530DB\..\..\..\ #
#                          ..\..\Components\stack\nwk\ -I                     #
#                          C:\ZigBee\SmartHomeApp\Projects\zstack\Samples\Sma #
#                          rtHomeApp\CC2530DB\..\..\..\..\..\Components\stack #
#                          \sapi\ -I C:\ZigBee\SmartHomeApp\Projects\zstack\S #
#                          amples\SmartHomeApp\CC2530DB\..\..\..\..\..\Compon #
#                          ents\stack\sec\ -I C:\ZigBee\SmartHomeApp\Projects #
#                          \zstack\Samples\SmartHomeApp\CC2530DB\..\..\..\..\ #
#                          ..\Components\stack\sys\ -I                        #
#                          C:\ZigBee\SmartHomeApp\Projects\zstack\Samples\Sma #
#                          rtHomeApp\CC2530DB\..\..\..\..\..\Components\stack #
#                          \zdo\ -I C:\ZigBee\SmartHomeApp\Projects\zstack\Sa #
#                          mples\SmartHomeApp\CC2530DB\..\..\..\..\..\Compone #
#                          nts\zmac\ -I C:\ZigBee\SmartHomeApp\Projects\zstac #
#                          k\Samples\SmartHomeApp\CC2530DB\..\..\..\..\..\Com #
#                          ponents\zmac\f8w\ -Ohz --require_prototypes        #
#    List file          =  C:\ZigBee\SmartHomeApp\Projects\zstack\Samples\Sma #
#                          rtHomeApp\CC2530DB\CoordinatorEB\List\Utils.lst    #
#    Object file        =  C:\ZigBee\SmartHomeApp\Projects\zstack\Samples\Sma #
#                          rtHomeApp\CC2530DB\CoordinatorEB\Obj\Utils.r51     #
#                                                                             #
#                                                                             #
###############################################################################

C:\ZigBee\SmartHomeApp\Projects\zstack\Samples\SmartHomeApp\Source\Utils.c
      1          #include "Utils.h"
      2          #include "OSAL_Nv.h"
      3          #include "ZComDef.h"
      4          
      5          #include "user_printf.h"
      6          
      7          #define MY_NAME_NV_LEN 64
      8          #define MY_NAME_NV_ID 0x2701
      9          

   \                                 In  segment XDATA_Z, align 1, keep-with-next
     10          static uint8* application_name;
   \                     application_name:
   \   000000                DS 2
   \   000002                REQUIRE __INIT_XDATA_Z
     11          

   \                                 In  segment BANKED_CODE, align 1, keep-with-next
     12          const uint8* Util_ReadName(void)
   \                     Util_ReadName:
     13          {
   \   000000   74F2         MOV     A,#-0xe
   \   000002   12....       LCALL   ?BANKED_ENTER_XDATA
   \   000005                ; Saved register size: 14
   \   000005                ; Auto size: 0
     14            uint16 len;
     15            uint8* myBuf;
     16            
     17            if (application_name != NULL) {
   \   000005   12....       LCALL   ?Subroutine13 & 0xFFFF
   \                     ??CrossCallReturnLabel_20:
   \   000008   49           ORL     A,R1
   \   000009   6009         JZ      ??Util_ReadName_0
     18              return application_name;
   \                     ??Util_ReadName_1:
   \   00000B   90....       MOV     DPTR,#application_name
     19            }
   \   00000E   12....       LCALL   ??Subroutine16_0 & 0xFFFF
   \                     ??CrossCallReturnLabel_22:
   \   000011   02....       LJMP    ??Util_ReadName_2 & 0xFFFF
     20            
     21            len = osal_nv_item_len(MY_NAME_NV_ID);
   \                     ??Util_ReadName_0:
   \   000014                ; Setup parameters for call to function osal_nv_item_len
   \   000014   7A01         MOV     R2,#0x1
   \   000016   7B27         MOV     R3,#0x27
   \   000018   12....       LCALL   ??osal_nv_item_len?relay
   \   00001B   8A..         MOV     ?V0 + 0,R2
   \   00001D   8B..         MOV     ?V0 + 1,R3
     22            if (len > MY_NAME_NV_LEN || len == 0) {
   \   00001F   C3           CLR     C
   \   000020   EA           MOV     A,R2
   \   000021   9441         SUBB    A,#0x41
   \   000023   EB           MOV     A,R3
   \   000024   9400         SUBB    A,#0x0
   \   000026   506D         JNC     ??Util_ReadName_3
   \   000028   EA           MOV     A,R2
   \   000029   45..         ORL     A,?V0 + 1
   \   00002B   6068         JZ      ??Util_ReadName_3
     23              return "Unkown";
     24            }
     25            
     26            myBuf = osal_mem_alloc(len+1);
   \   00002D                ; Setup parameters for call to function osal_mem_alloc
   \   00002D   EA           MOV     A,R2
   \   00002E   2401         ADD     A,#0x1
   \   000030   0A           INC     R2
   \   000031   EB           MOV     A,R3
   \   000032   3400         ADDC    A,#0x0
   \   000034   FB           MOV     R3,A
   \   000035   12....       LCALL   ??osal_mem_alloc?relay
   \   000038   8A..         MOV     ?V0 + 2,R2
   \   00003A   8B..         MOV     ?V0 + 3,R3
     27            osal_nv_item_init(MY_NAME_NV_ID, len, NULL);
   \   00003C                ; Setup parameters for call to function osal_nv_item_init
   \   00003C   E4           CLR     A
   \   00003D   F5..         MOV     ?V0 + 4,A
   \   00003F   F5..         MOV     ?V0 + 5,A
   \   000041   78..         MOV     R0,#?V0 + 4
   \   000043   12....       LCALL   ?PUSH_XSTACK_I_TWO
   \   000046   AC..         MOV     R4,?V0 + 0
   \   000048   AD..         MOV     R5,?V0 + 1
   \   00004A   7A01         MOV     R2,#0x1
   \   00004C   7B27         MOV     R3,#0x27
   \   00004E   12....       LCALL   ??osal_nv_item_init?relay
   \   000051   7402         MOV     A,#0x2
   \   000053   12....       LCALL   ?DEALLOC_XSTACK8
     28            if (osal_nv_read(MY_NAME_NV_ID, 0, len, myBuf ) == ZSUCCESS) {
   \   000056                ; Setup parameters for call to function osal_nv_read
   \   000056   78..         MOV     R0,#?V0 + 2
   \   000058   12....       LCALL   ?PUSH_XSTACK_I_TWO
   \   00005B   78..         MOV     R0,#?V0 + 0
   \   00005D   12....       LCALL   ?PUSH_XSTACK_I_TWO
   \   000060   7C00         MOV     R4,#0x0
   \   000062   7D00         MOV     R5,#0x0
   \   000064   7A01         MOV     R2,#0x1
   \   000066   7B27         MOV     R3,#0x27
   \   000068   12....       LCALL   ??osal_nv_read?relay
   \   00006B   7404         MOV     A,#0x4
   \   00006D   12....       LCALL   ?DEALLOC_XSTACK8
   \   000070   E9           MOV     A,R1
   \   000071   701B         JNZ     ??Util_ReadName_4
     29              myBuf[len] = 0;
   \   000073   E5..         MOV     A,?V0 + 2
   \   000075   25..         ADD     A,?V0 + 0
   \   000077   F582         MOV     DPL,A
   \   000079   E5..         MOV     A,?V0 + 3
   \   00007B   35..         ADDC    A,?V0 + 1
   \   00007D   F583         MOV     DPH,A
   \   00007F   E4           CLR     A
   \   000080   F0           MOVX    @DPTR,A
     30              application_name = myBuf;
   \   000081   90....       MOV     DPTR,#application_name
   \   000084   E5..         MOV     A,?V0 + 2
   \   000086   F0           MOVX    @DPTR,A
   \   000087   A3           INC     DPTR
   \   000088   E5..         MOV     A,?V0 + 3
   \   00008A   F0           MOVX    @DPTR,A
     31              return application_name;
   \   00008B   02....       LJMP    ??Util_ReadName_1 & 0xFFFF
     32            } else {
     33              osal_mem_free(myBuf);
   \                     ??Util_ReadName_4:
   \   00008E                ; Setup parameters for call to function osal_mem_free
   \   00008E   AA..         MOV     R2,?V0 + 2
   \   000090   AB..         MOV     R3,?V0 + 3
   \   000092   12....       LCALL   ??osal_mem_free?relay
     34              return "Unkown";
   \                     ??Util_ReadName_3:
   \   000095   7A..         MOV     R2,#`?<Constant "Unkown">` & 0xff
   \   000097   7B..         MOV     R3,#(`?<Constant "Unkown">` >> 8) & 0xff
     35            }
   \                     ??Util_ReadName_2:
   \   000099                REQUIRE ?Subroutine0
   \   000099                ; // Fall through to label ?Subroutine0
     36          }

   \                                 In  segment BANKED_CODE, align 1, keep-with-next
   \                     ?Subroutine0:
   \   000000   7F06         MOV     R7,#0x6
   \   000002   02....       LJMP    ?BANKED_LEAVE_XDATA

   \                                 In  segment BANKED_CODE, align 1, keep-with-next
   \                     ?Subroutine13:
   \   000000   90....       MOV     DPTR,#application_name
   \   000003                REQUIRE ??Subroutine15_0
   \   000003                ; // Fall through to label ??Subroutine15_0

   \                                 In  segment BANKED_CODE, align 1, keep-with-next
   \                     ??Subroutine15_0:
   \   000000   E0           MOVX    A,@DPTR
   \   000001   F8           MOV     R0,A
   \   000002   A3           INC     DPTR
   \   000003   E0           MOVX    A,@DPTR
   \   000004   F9           MOV     R1,A
   \   000005   E8           MOV     A,R0
   \   000006   22           RET

   \                                 In  segment BANKED_CODE, align 1, keep-with-next
   \                     ??Subroutine16_0:
   \   000000   E0           MOVX    A,@DPTR
   \   000001   FA           MOV     R2,A
   \   000002   A3           INC     DPTR
   \   000003   E0           MOVX    A,@DPTR
   \   000004   FB           MOV     R3,A
   \   000005   22           RET
     37          

   \                                 In  segment BANKED_CODE, align 1, keep-with-next
     38          void Util_WriteName(uint8 *buf, uint16 len)
   \                     Util_WriteName:
     39          {
   \   000000   74F2         MOV     A,#-0xe
   \   000002   12....       LCALL   ?BANKED_ENTER_XDATA
   \   000005                ; Saved register size: 14
   \   000005                ; Auto size: 0
   \   000005   8A..         MOV     ?V0 + 2,R2
   \   000007   8B..         MOV     ?V0 + 3,R3
   \   000009   8C..         MOV     ?V0 + 0,R4
   \   00000B   8D..         MOV     ?V0 + 1,R5
     40            osal_nv_item_init(MY_NAME_NV_ID, len, NULL);
   \   00000D                ; Setup parameters for call to function osal_nv_item_init
   \   00000D   E4           CLR     A
   \   00000E   F5..         MOV     ?V0 + 4,A
   \   000010   F5..         MOV     ?V0 + 5,A
   \   000012   78..         MOV     R0,#?V0 + 4
   \   000014   12....       LCALL   ?PUSH_XSTACK_I_TWO
   \   000017   7A01         MOV     R2,#0x1
   \   000019   7B27         MOV     R3,#0x27
   \   00001B   12....       LCALL   ??osal_nv_item_init?relay
   \   00001E   7402         MOV     A,#0x2
   \   000020   12....       LCALL   ?DEALLOC_XSTACK8
     41            osal_nv_write(MY_NAME_NV_ID, 0, len, buf);
   \   000023                ; Setup parameters for call to function osal_nv_write
   \   000023   78..         MOV     R0,#?V0 + 2
   \   000025   12....       LCALL   ?PUSH_XSTACK_I_TWO
   \   000028   78..         MOV     R0,#?V0 + 0
   \   00002A   12....       LCALL   ?PUSH_XSTACK_I_TWO
   \   00002D   7C00         MOV     R4,#0x0
   \   00002F   7D00         MOV     R5,#0x0
   \   000031   7A01         MOV     R2,#0x1
   \   000033   7B27         MOV     R3,#0x27
   \   000035   12....       LCALL   ??osal_nv_write?relay
   \   000038   7404         MOV     A,#0x4
   \   00003A   12....       LCALL   ?DEALLOC_XSTACK8
     42            if (application_name != NULL) {
   \   00003D   12....       LCALL   ?Subroutine13 & 0xFFFF
   \                     ??CrossCallReturnLabel_21:
   \   000040   49           ORL     A,R1
   \   000041   6009         JZ      ??Util_WriteName_0
     43              osal_mem_free(application_name);
   \   000043                ; Setup parameters for call to function osal_mem_free
   \   000043   90....       MOV     DPTR,#application_name
   \   000046   12....       LCALL   ??Subroutine16_0 & 0xFFFF
     44            }
   \                     ??CrossCallReturnLabel_23:
   \   000049   12....       LCALL   ??osal_mem_free?relay
     45            application_name = NULL;
   \                     ??Util_WriteName_0:
   \   00004C   90....       MOV     DPTR,#application_name
   \   00004F   E4           CLR     A
   \   000050   F0           MOVX    @DPTR,A
   \   000051   A3           INC     DPTR
   \   000052   F0           MOVX    @DPTR,A
     46          }
   \   000053   80..         SJMP    ?Subroutine0
     47          
     48          

   \                                 In  segment BANKED_CODE, align 1, keep-with-next
     49          uint8 Util_StartWith(const uint8* str1, const uint8* str2)
   \                     Util_StartWith:
     50          {
   \   000000   C082         PUSH    DPL
   \   000002   C083         PUSH    DPH
   \   000004                ; Saved register size: 2
   \   000004                ; Auto size: 0
   \   000004   8012         SJMP    ??Util_StartWith_0
     51            while (*str2) {
     52              if (*str1 != *str2) {
     53                return 0;
     54              }
     55              str1++;
   \                     ??Util_StartWith_1:
   \   000006   8A82         MOV     DPL,R2
   \   000008   8B83         MOV     DPH,R3
   \   00000A   A3           INC     DPTR
   \   00000B   AA82         MOV     R2,DPL
   \   00000D   AB83         MOV     R3,DPH
     56              str2++;
   \   00000F   8C82         MOV     DPL,R4
   \   000011   8D83         MOV     DPH,R5
   \   000013   A3           INC     DPTR
   \   000014   AC82         MOV     R4,DPL
   \   000016   AD83         MOV     R5,DPH
   \                     ??Util_StartWith_0:
   \   000018   8C82         MOV     DPL,R4
   \   00001A   8D83         MOV     DPH,R5
   \   00001C   E0           MOVX    A,@DPTR
   \   00001D   6009         JZ      ??Util_StartWith_2
   \   00001F   12....       LCALL   ?Subroutine10 & 0xFFFF
   \                     ??CrossCallReturnLabel_9:
   \   000022   60E2         JZ      ??Util_StartWith_1
   \   000024   7900         MOV     R1,#0x0
   \   000026   8002         SJMP    ??Util_StartWith_3
     57            }
     58            return 1;
   \                     ??Util_StartWith_2:
   \   000028   7901         MOV     R1,#0x1
   \                     ??Util_StartWith_3:
   \   00002A                REQUIRE ?Subroutine1
   \   00002A                ; // Fall through to label ?Subroutine1
     59          }

   \                                 In  segment BANKED_CODE, align 1, keep-with-next
   \                     ?Subroutine1:
   \   000000   D083         POP     DPH
   \   000002   D082         POP     DPL
   \   000004   02....       LJMP    ?BRET

   \                                 In  segment BANKED_CODE, align 1, keep-with-next
   \                     ?Subroutine10:
   \   000000   8A82         MOV     DPL,R2
   \   000002   8B83         MOV     DPH,R3
   \   000004   E0           MOVX    A,@DPTR
   \   000005   F8           MOV     R0,A
   \   000006   8C82         MOV     DPL,R4
   \   000008   8D83         MOV     DPH,R5
   \   00000A   E0           MOVX    A,@DPTR
   \   00000B   68           XRL     A,R0
   \   00000C   22           RET
     60          

   \                                 In  segment BANKED_CODE, align 1, keep-with-next
     61          uint8 Util_StrEqual(const uint8* str1, const uint8* str2)
   \                     Util_StrEqual:
     62          {
   \   000000   C082         PUSH    DPL
   \   000002   C083         PUSH    DPH
   \   000004                ; Saved register size: 2
   \   000004                ; Auto size: 0
   \   000004   8012         SJMP    ??Util_StrEqual_0
     63            while (*str2 && *str1) {
     64              if (*str1 != *str2) {
     65                return 0;
     66              }
     67              str1++;
   \                     ??Util_StrEqual_1:
   \   000006   8A82         MOV     DPL,R2
   \   000008   8B83         MOV     DPH,R3
   \   00000A   A3           INC     DPTR
   \   00000B   AA82         MOV     R2,DPL
   \   00000D   AB83         MOV     R3,DPH
     68              str2++;
   \   00000F   8C82         MOV     DPL,R4
   \   000011   8D83         MOV     DPH,R5
   \   000013   A3           INC     DPTR
   \   000014   AC82         MOV     R4,DPL
   \   000016   AD83         MOV     R5,DPH
   \                     ??Util_StrEqual_0:
   \   000018   8C82         MOV     DPL,R4
   \   00001A   8D83         MOV     DPH,R5
   \   00001C   E0           MOVX    A,@DPTR
   \   00001D   6014         JZ      ??Util_StrEqual_2
   \   00001F   8A82         MOV     DPL,R2
   \   000021   8B83         MOV     DPH,R3
   \   000023   E0           MOVX    A,@DPTR
   \   000024   600D         JZ      ??Util_StrEqual_2
   \   000026   F8           MOV     R0,A
   \   000027   8C82         MOV     DPL,R4
   \   000029   8D83         MOV     DPH,R5
   \   00002B   E0           MOVX    A,@DPTR
   \   00002C   68           XRL     A,R0
   \   00002D   60D7         JZ      ??Util_StrEqual_1
   \                     ??Util_StrEqual_3:
   \   00002F   7900         MOV     R1,#0x0
   \   000031   8007         SJMP    ??Util_StrEqual_4
     69            }
     70            if (*str1 == *str2) {
   \                     ??Util_StrEqual_2:
   \   000033   12....       LCALL   ?Subroutine10 & 0xFFFF
   \                     ??CrossCallReturnLabel_10:
   \   000036   70F7         JNZ     ??Util_StrEqual_3
     71              return 1;
   \   000038   7901         MOV     R1,#0x1
     72            } else {
   \                     ??Util_StrEqual_4:
   \   00003A   80..         SJMP    ?Subroutine1
     73              return 0;
     74            }
     75          }
     76          
     77          
     78          typedef struct
     79          {
     80            uint16 addr;
     81            uint8* name;
     82          } NameAddrCacheData_t;
     83          
     84          #define NAME_ADDR_CACHE_SIZE 5
     85          

   \                                 In  segment XDATA_Z, align 1, keep-with-next
     86          NameAddrCacheData_t* name_addr_cache[NAME_ADDR_CACHE_SIZE];
   \                     name_addr_cache:
   \   000000                DS 10
   \   00000A                REQUIRE __INIT_XDATA_Z

   \                                 In  segment XDATA_Z, align 1, keep-with-next
     87          uint16 name_addr_cache_idx = 0;
   \                     name_addr_cache_idx:
   \   000000                DS 2
   \   000002                REQUIRE __INIT_XDATA_Z
     88          
     89          

   \                                 In  segment BANKED_CODE, align 1, keep-with-next
     90          void NameAddrCache_delete(uint16 addr)
   \                     NameAddrCache_delete:
     91          {
   \   000000   74F6         MOV     A,#-0xa
   \   000002   12....       LCALL   ?BANKED_ENTER_XDATA
   \   000005                ; Saved register size: 10
   \   000005                ; Auto size: 0
   \   000005   8A..         MOV     ?V0 + 0,R2
   \   000007   8B..         MOV     ?V0 + 1,R3
     92            uint16 i;
     93            NameAddrCacheData_t* data;
     94            
     95            // find old match data, remove it
     96            for (i = 0; i < NAME_ADDR_CACHE_SIZE; i++) {
   \   000009   7E00         MOV     R6,#0x0
   \   00000B   7F00         MOV     R7,#0x0
     97               data = name_addr_cache[i];
   \                     ??NameAddrCache_delete_0:
   \   00000D   EE           MOV     A,R6
   \   00000E   F8           MOV     R0,A
   \   00000F   EF           MOV     A,R7
   \   000010   F9           MOV     R1,A
   \   000011   E8           MOV     A,R0
   \   000012   C3           CLR     C
   \   000013   33           RLC     A
   \   000014   F8           MOV     R0,A
   \   000015   E9           MOV     A,R1
   \   000016   12....       LCALL   ?Subroutine12 & 0xFFFF
   \                     ??CrossCallReturnLabel_13:
   \   000019   12....       LCALL   ??Subroutine16_0 & 0xFFFF
     98               if (data == NULL)
   \                     ??CrossCallReturnLabel_24:
   \   00001C   EA           MOV     A,R2
   \   00001D   4B           ORL     A,R3
   \   00001E   601E         JZ      ??CrossCallReturnLabel_11
     99                 continue;
    100               if (data->addr == addr) {
   \   000020   8A82         MOV     DPL,R2
   \   000022   8B83         MOV     DPH,R3
   \   000024   E0           MOVX    A,@DPTR
   \   000025   65..         XRL     A,?V0 + 0
   \   000027   7004         JNZ     ??NameAddrCache_delete_1
   \   000029   A3           INC     DPTR
   \   00002A   E0           MOVX    A,@DPTR
   \   00002B   65..         XRL     A,?V0 + 1
   \                     ??NameAddrCache_delete_1:
   \   00002D   700F         JNZ     ??CrossCallReturnLabel_11
    101                 osal_mem_free(data);
   \   00002F                ; Setup parameters for call to function osal_mem_free
   \   00002F   12....       LCALL   ??osal_mem_free?relay
    102                 name_addr_cache[i] = NULL;
   \   000032   EE           MOV     A,R6
   \   000033   F8           MOV     R0,A
   \   000034   EF           MOV     A,R7
   \   000035   F9           MOV     R1,A
   \   000036   E8           MOV     A,R0
   \   000037   C3           CLR     C
   \   000038   33           RLC     A
   \   000039   F8           MOV     R0,A
   \   00003A   E9           MOV     A,R1
   \   00003B   12....       LCALL   ?Subroutine11 & 0xFFFF
    103               }
    104            }
   \                     ??CrossCallReturnLabel_11:
   \   00003E   EE           MOV     A,R6
   \   00003F   2401         ADD     A,#0x1
   \   000041   0E           INC     R6
   \   000042   EF           MOV     A,R7
   \   000043   3400         ADDC    A,#0x0
   \   000045   FF           MOV     R7,A
   \   000046   C3           CLR     C
   \   000047   EE           MOV     A,R6
   \   000048   9405         SUBB    A,#0x5
   \   00004A   EF           MOV     A,R7
   \   00004B   9400         SUBB    A,#0x0
   \   00004D   40BE         JC      ??NameAddrCache_delete_0
    105            
    106          }
   \   00004F                REQUIRE ?Subroutine2
   \   00004F                ; // Fall through to label ?Subroutine2

   \                                 In  segment BANKED_CODE, align 1, keep-with-next
   \                     ?Subroutine2:
   \   000000   7F02         MOV     R7,#0x2
   \   000002   02....       LJMP    ?BANKED_LEAVE_XDATA

   \                                 In  segment BANKED_CODE, align 1, keep-with-next
   \                     ?Subroutine12:
   \   000000   12....       LCALL   ?Subroutine14 & 0xFFFF
   \                     ??CrossCallReturnLabel_18:
   \   000003   22           RET

   \                                 In  segment BANKED_CODE, align 1, keep-with-next
   \                     ?Subroutine11:
   \   000000   12....       LCALL   ?Subroutine14 & 0xFFFF
   \                     ??CrossCallReturnLabel_17:
   \   000003   E4           CLR     A
   \   000004   F0           MOVX    @DPTR,A
   \   000005   A3           INC     DPTR
   \   000006   F0           MOVX    @DPTR,A
   \   000007   22           RET

   \                                 In  segment BANKED_CODE, align 1, keep-with-next
   \                     ?Subroutine14:
   \   000000   33           RLC     A
   \   000001   F9           MOV     R1,A
   \   000002   74..         MOV     A,#name_addr_cache & 0xff
   \   000004   28           ADD     A,R0
   \   000005   F582         MOV     DPL,A
   \   000007   74..         MOV     A,#(name_addr_cache >> 8) & 0xff
   \   000009   39           ADDC    A,R1
   \   00000A   F583         MOV     DPH,A
   \   00000C   22           RET
    107          

   \                                 In  segment BANKED_CODE, align 1, keep-with-next
   \                     ?Subroutine6:
   \   000000   85..82       MOV     DPL,?V0 + 2
   \   000003   85..83       MOV     DPH,?V0 + 3
   \   000006                REQUIRE ??Subroutine16_0
   \   000006                ; // Fall through to label ??Subroutine16_0

   \                                 In  segment BANKED_CODE, align 1, keep-with-next
    108          void NameAddrCache_put(uint8* name, uint16 addr)
   \                     NameAddrCache_put:
    109          {
   \   000000   74F1         MOV     A,#-0xf
   \   000002   12....       LCALL   ?BANKED_ENTER_XDATA
   \   000005                ; Saved register size: 15
   \   000005                ; Auto size: 0
   \   000005   EA           MOV     A,R2
   \   000006   FE           MOV     R6,A
   \   000007   EB           MOV     A,R3
   \   000008   FF           MOV     R7,A
   \   000009   8C..         MOV     ?V0 + 4,R4
   \   00000B   8D..         MOV     ?V0 + 5,R5
    110            uint16 i;
    111            NameAddrCacheData_t* data;
    112            
    113            // find old match data, remove it
    114            for (i = 0; i < NAME_ADDR_CACHE_SIZE; i++) {
   \   00000D   75..00       MOV     ?V0 + 2,#0x0
   \   000010   75..00       MOV     ?V0 + 3,#0x0
    115               data = name_addr_cache[i];
   \                     ??NameAddrCache_put_0:
   \   000013   E5..         MOV     A,?V0 + 2
   \   000015   C3           CLR     C
   \   000016   33           RLC     A
   \   000017   F8           MOV     R0,A
   \   000018   E5..         MOV     A,?V0 + 3
   \   00001A   12....       LCALL   ?Subroutine12 & 0xFFFF
   \                     ??CrossCallReturnLabel_14:
   \   00001D   12....       LCALL   ?Subroutine7 & 0xFFFF
    116               if (data == NULL)
   \                     ??CrossCallReturnLabel_5:
   \   000020   602D         JZ      ??CrossCallReturnLabel_12
    117                 continue;
    118               if (data->addr == addr || Util_StrEqual(name, data->name)) {
   \   000022   85..82       MOV     DPL,?V0 + 0
   \   000025   85..83       MOV     DPH,?V0 + 1
   \   000028   E0           MOVX    A,@DPTR
   \   000029   65..         XRL     A,?V0 + 4
   \   00002B   7004         JNZ     ??NameAddrCache_put_1
   \   00002D   A3           INC     DPTR
   \   00002E   E0           MOVX    A,@DPTR
   \   00002F   65..         XRL     A,?V0 + 5
   \                     ??NameAddrCache_put_1:
   \   000031   600B         JZ      ??NameAddrCache_put_2
   \   000033                ; Setup parameters for call to function Util_StrEqual
   \   000033   85..82       MOV     DPL,?V0 + 0
   \   000036   85..83       MOV     DPH,?V0 + 1
   \   000039   12....       LCALL   ?Subroutine5 & 0xFFFF
   \                     ??CrossCallReturnLabel_3:
   \   00003C   6011         JZ      ??CrossCallReturnLabel_12
    119                 osal_mem_free(data);
   \                     ??NameAddrCache_put_2:
   \   00003E                ; Setup parameters for call to function osal_mem_free
   \   00003E   AA..         MOV     R2,?V0 + 0
   \   000040   AB..         MOV     R3,?V0 + 1
   \   000042   12....       LCALL   ??osal_mem_free?relay
    120                 name_addr_cache[i] = NULL;
   \   000045   E5..         MOV     A,?V0 + 2
   \   000047   C3           CLR     C
   \   000048   33           RLC     A
   \   000049   F8           MOV     R0,A
   \   00004A   E5..         MOV     A,?V0 + 3
   \   00004C   12....       LCALL   ?Subroutine11 & 0xFFFF
    121               }
    122            }
   \                     ??CrossCallReturnLabel_12:
   \   00004F   E5..         MOV     A,?V0 + 2
   \   000051   2401         ADD     A,#0x1
   \   000053   F5..         MOV     ?V0 + 2,A
   \   000055   E5..         MOV     A,?V0 + 3
   \   000057   3400         ADDC    A,#0x0
   \   000059   F5..         MOV     ?V0 + 3,A
   \   00005B   C3           CLR     C
   \   00005C   E5..         MOV     A,?V0 + 2
   \   00005E   9405         SUBB    A,#0x5
   \   000060   E5..         MOV     A,?V0 + 3
   \   000062   9400         SUBB    A,#0x0
   \   000064   40AD         JC      ??NameAddrCache_put_0
    123            
    124            // remove current point data
    125            data = name_addr_cache[name_addr_cache_idx];
   \   000066   12....       LCALL   ?Subroutine4 & 0xFFFF
   \                     ??CrossCallReturnLabel_0:
   \   000069   12....       LCALL   ?Subroutine7 & 0xFFFF
    126            if (data != NULL) {
   \                     ??CrossCallReturnLabel_6:
   \   00006C   600E         JZ      ??NameAddrCache_put_3
    127              osal_mem_free(data);
   \   00006E                ; Setup parameters for call to function osal_mem_free
   \   00006E   AA..         MOV     R2,?V0 + 0
   \   000070   AB..         MOV     R3,?V0 + 1
   \   000072   12....       LCALL   ??osal_mem_free?relay
    128              name_addr_cache[name_addr_cache_idx] = NULL;
   \   000075   12....       LCALL   ?Subroutine4 & 0xFFFF
    129            }
   \                     ??CrossCallReturnLabel_1:
   \   000078   E4           CLR     A
   \   000079   F0           MOVX    @DPTR,A
   \   00007A   A3           INC     DPTR
   \   00007B   F0           MOVX    @DPTR,A
    130            
    131            data = osal_mem_alloc(2 + 2 + osal_strlen((char*)name)+1);
   \                     ??NameAddrCache_put_3:
   \   00007C                ; Setup parameters for call to function osal_mem_alloc
   \   00007C                ; Setup parameters for call to function osal_strlen
   \   00007C   EE           MOV     A,R6
   \   00007D   FA           MOV     R2,A
   \   00007E   EF           MOV     A,R7
   \   00007F   FB           MOV     R3,A
   \   000080   12....       LCALL   ??osal_strlen?relay
   \   000083   EA           MOV     A,R2
   \   000084   2405         ADD     A,#0x5
   \   000086   FA           MOV     R2,A
   \   000087   EB           MOV     A,R3
   \   000088   12....       LCALL   ?Subroutine9 & 0xFFFF
    132            data->addr = addr;
   \                     ??CrossCallReturnLabel_7:
   \   00008B   8A82         MOV     DPL,R2
   \   00008D   8B83         MOV     DPH,R3
   \   00008F   E5..         MOV     A,?V0 + 4
   \   000091   F0           MOVX    @DPTR,A
   \   000092   A3           INC     DPTR
   \   000093   E5..         MOV     A,?V0 + 5
   \   000095   F0           MOVX    @DPTR,A
    133            data->name = (uint8*)data + 4;
   \   000096   EA           MOV     A,R2
   \   000097   2402         ADD     A,#0x2
   \   000099   F5..         MOV     ?V0 + 2,A
   \   00009B   EB           MOV     A,R3
   \   00009C   3400         ADDC    A,#0x0
   \   00009E   F5..         MOV     ?V0 + 3,A
   \   0000A0   EA           MOV     A,R2
   \   0000A1   2404         ADD     A,#0x4
   \   0000A3   F8           MOV     R0,A
   \   0000A4   EB           MOV     A,R3
   \   0000A5   3400         ADDC    A,#0x0
   \   0000A7   F9           MOV     R1,A
   \   0000A8   85..82       MOV     DPL,?V0 + 2
   \   0000AB   85..83       MOV     DPH,?V0 + 3
   \   0000AE   E8           MOV     A,R0
   \   0000AF   F0           MOVX    @DPTR,A
   \   0000B0   A3           INC     DPTR
   \   0000B1   E9           MOV     A,R1
   \   0000B2   F0           MOVX    @DPTR,A
    134            osal_memcpy(data->name, name, osal_strlen((char*)name)+1);
   \   0000B3                ; Setup parameters for call to function osal_strlen
   \   0000B3   EE           MOV     A,R6
   \   0000B4   FA           MOV     R2,A
   \   0000B5   EF           MOV     A,R7
   \   0000B6   FB           MOV     R3,A
   \   0000B7   12....       LCALL   ??osal_strlen?relay
   \   0000BA                ; Setup parameters for call to function osal_memcpy
   \   0000BA   8E..         MOV     ?V0 + 4,R6
   \   0000BC   8F..         MOV     ?V0 + 5,R7
   \   0000BE   75..00       MOV     ?V0 + 6,#0x0
   \   0000C1   78..         MOV     R0,#?V0 + 4
   \   0000C3   12....       LCALL   ?PUSH_XSTACK_I_THREE
   \   0000C6   EA           MOV     A,R2
   \   0000C7   2401         ADD     A,#0x1
   \   0000C9   FC           MOV     R4,A
   \   0000CA   EB           MOV     A,R3
   \   0000CB   3400         ADDC    A,#0x0
   \   0000CD   FD           MOV     R5,A
   \   0000CE   12....       LCALL   ?Subroutine6 & 0xFFFF
   \                     ??CrossCallReturnLabel_25:
   \   0000D1   12....       LCALL   ??osal_memcpy?relay
   \   0000D4   7403         MOV     A,#0x3
   \   0000D6   12....       LCALL   ?DEALLOC_XSTACK8
    135            
    136            name_addr_cache[name_addr_cache_idx] = data;
   \   0000D9   12....       LCALL   ?Subroutine4 & 0xFFFF
   \                     ??CrossCallReturnLabel_2:
   \   0000DC   E5..         MOV     A,?V0 + 0
   \   0000DE   F0           MOVX    @DPTR,A
   \   0000DF   A3           INC     DPTR
   \   0000E0   E5..         MOV     A,?V0 + 1
   \   0000E2   F0           MOVX    @DPTR,A
    137            name_addr_cache_idx++;
    138            name_addr_cache_idx = name_addr_cache_idx % NAME_ADDR_CACHE_SIZE;
   \   0000E3   90....       MOV     DPTR,#name_addr_cache_idx
   \   0000E6   E0           MOVX    A,@DPTR
   \   0000E7   2401         ADD     A,#0x1
   \   0000E9   F8           MOV     R0,A
   \   0000EA   A3           INC     DPTR
   \   0000EB   E0           MOVX    A,@DPTR
   \   0000EC   3400         ADDC    A,#0x0
   \   0000EE   F9           MOV     R1,A
   \   0000EF   7A05         MOV     R2,#0x5
   \   0000F1   7B00         MOV     R3,#0x0
   \   0000F3   12....       LCALL   ?US_DIV_MOD
   \   0000F6   90....       MOV     DPTR,#name_addr_cache_idx
   \   0000F9   EA           MOV     A,R2
   \   0000FA   F0           MOVX    @DPTR,A
   \   0000FB   A3           INC     DPTR
   \   0000FC   EB           MOV     A,R3
   \   0000FD   F0           MOVX    @DPTR,A
    139            
    140            
    141            // debug only
    142          //  printf("debug idx=%d\n", name_addr_cache_idx);
    143          //  for (i = 0; i < NAME_ADDR_CACHE_SIZE; i++) {
    144          //     data = name_addr_cache[i];
    145          //     if (data == NULL) {
    146          //        printf("[%d] NULL\n", i);
    147          //       continue;
    148          //     }
    149          //     
    150          //     printf("[%d] %04X %s\n", i, data->addr, data->name);
    151          //  }
    152          }
   \   0000FE                REQUIRE ?Subroutine3
   \   0000FE                ; // Fall through to label ?Subroutine3

   \                                 In  segment BANKED_CODE, align 1, keep-with-next
   \                     ?Subroutine3:
   \   000000   7F07         MOV     R7,#0x7
   \   000002   02....       LJMP    ?BANKED_LEAVE_XDATA

   \                                 In  segment BANKED_CODE, align 1, keep-with-next
   \                     ?Subroutine7:
   \   000000   E0           MOVX    A,@DPTR
   \   000001   F5..         MOV     ?V0 + 0,A
   \   000003   A3           INC     DPTR
   \   000004   E0           MOVX    A,@DPTR
   \   000005   F5..         MOV     ?V0 + 1,A
   \   000007   E5..         MOV     A,?V0 + 0
   \   000009   45..         ORL     A,?V0 + 1
   \   00000B   22           RET

   \                                 In  segment BANKED_CODE, align 1, keep-with-next
   \                     ?Subroutine4:
   \   000000   90....       MOV     DPTR,#name_addr_cache_idx
   \   000003   12....       LCALL   ??Subroutine15_0 & 0xFFFF
   \                     ??CrossCallReturnLabel_19:
   \   000006   C3           CLR     C
   \   000007   33           RLC     A
   \   000008   F8           MOV     R0,A
   \   000009   E9           MOV     A,R1
   \   00000A   12....       LCALL   ?Subroutine14 & 0xFFFF
   \                     ??CrossCallReturnLabel_16:
   \   00000D   22           RET

   \                                 In  segment BANKED_CODE, align 1, keep-with-next
   \                     ?Subroutine9:
   \   000000   3400         ADDC    A,#0x0
   \   000002   FB           MOV     R3,A
   \   000003   12....       LCALL   ??osal_mem_alloc?relay
   \   000006   8A..         MOV     ?V0 + 0,R2
   \   000008   8B..         MOV     ?V0 + 1,R3
   \   00000A   22           RET

   \                                 In  segment BANKED_CODE, align 1, keep-with-next
   \                     ?Subroutine5:
   \   000000   A3           INC     DPTR
   \   000001   A3           INC     DPTR
   \   000002   E0           MOVX    A,@DPTR
   \   000003   FC           MOV     R4,A
   \   000004   A3           INC     DPTR
   \   000005   E0           MOVX    A,@DPTR
   \   000006   FD           MOV     R5,A
   \   000007   EE           MOV     A,R6
   \   000008   FA           MOV     R2,A
   \   000009   EF           MOV     A,R7
   \   00000A   FB           MOV     R3,A
   \   00000B   12....       LCALL   ??Util_StrEqual?relay
   \   00000E   E9           MOV     A,R1
   \   00000F   22           RET
    153          

   \                                 In  segment BANKED_CODE, align 1, keep-with-next
    154          uint8* Util_GetNameFromCmd(uint8* cmd)
   \                     Util_GetNameFromCmd:
    155          {
   \   000000   74F1         MOV     A,#-0xf
   \   000002   12....       LCALL   ?BANKED_ENTER_XDATA
   \   000005                ; Saved register size: 15
   \   000005                ; Auto size: 0
    156            uint16 name_size;
    157            uint8 *start_p, *end_p;
    158            
    159            start_p = cmd;
   \   000005   EA           MOV     A,R2
   \   000006   FE           MOV     R6,A
   \   000007   EB           MOV     A,R3
   \   000008   FF           MOV     R7,A
    160            while (*start_p != ' ')
   \                     ??Util_GetNameFromCmd_0:
   \   000009   8E82         MOV     DPL,R6
   \   00000B   8F83         MOV     DPH,R7
   \   00000D   E0           MOVX    A,@DPTR
   \   00000E   6420         XRL     A,#0x20
   \   000010   A3           INC     DPTR
   \   000011   AE82         MOV     R6,DPL
   \   000013   AF83         MOV     R7,DPH
   \   000015   6009         JZ      ??Util_GetNameFromCmd_1
    161              start_p++;
   \   000017   80F0         SJMP    ??Util_GetNameFromCmd_0
    162            
    163            if (*start_p != ' ')
    164              return NULL;
   \                     ??Util_GetNameFromCmd_2:
   \   000019   7A00         MOV     R2,#0x0
   \   00001B   7B00         MOV     R3,#0x0
   \   00001D   8050         SJMP    ??Util_GetNameFromCmd_3
    165            
    166            start_p++;
    167            
    168            end_p = start_p;
    169            
    170            while (*end_p != ' ' && *end_p)
    171              end_p++;
   \                     ??Util_GetNameFromCmd_4:
   \   00001F   A3           INC     DPTR
   \                     ??Util_GetNameFromCmd_1:
   \   000020   E0           MOVX    A,@DPTR
   \   000021   6420         XRL     A,#0x20
   \   000023   6003         JZ      ??Util_GetNameFromCmd_5
   \   000025   E0           MOVX    A,@DPTR
   \   000026   70F7         JNZ     ??Util_GetNameFromCmd_4
    172            
    173            if (*end_p != ' ' && *end_p != '\0')
   \                     ??Util_GetNameFromCmd_5:
   \   000028   E0           MOVX    A,@DPTR
   \   000029   6420         XRL     A,#0x20
   \   00002B   6003         JZ      ??Util_GetNameFromCmd_6
   \   00002D   E0           MOVX    A,@DPTR
   \   00002E   70E9         JNZ     ??Util_GetNameFromCmd_2
    174              return NULL;
    175            
    176            name_size = end_p - start_p;
   \                     ??Util_GetNameFromCmd_6:
   \   000030   E582         MOV     A,DPL
   \   000032   C3           CLR     C
   \   000033   9E           SUBB    A,R6
   \   000034   F5..         MOV     ?V0 + 2,A
   \   000036   E583         MOV     A,DPH
   \   000038   9F           SUBB    A,R7
   \   000039   F5..         MOV     ?V0 + 3,A
    177            uint8* name = osal_mem_alloc(name_size+1);
   \   00003B                ; Setup parameters for call to function osal_mem_alloc
   \   00003B   E5..         MOV     A,?V0 + 2
   \   00003D   2401         ADD     A,#0x1
   \   00003F   FA           MOV     R2,A
   \   000040   E5..         MOV     A,?V0 + 3
   \   000042   12....       LCALL   ?Subroutine9 & 0xFFFF
    178            osal_memcpy(name, start_p, name_size);
   \                     ??CrossCallReturnLabel_8:
   \   000045                ; Setup parameters for call to function osal_memcpy
   \   000045   8E..         MOV     ?V0 + 4,R6
   \   000047   8F..         MOV     ?V0 + 5,R7
   \   000049   75..00       MOV     ?V0 + 6,#0x0
   \   00004C   78..         MOV     R0,#?V0 + 4
   \   00004E   12....       LCALL   ?PUSH_XSTACK_I_THREE
   \   000051   AC..         MOV     R4,?V0 + 2
   \   000053   AD..         MOV     R5,?V0 + 3
   \   000055   12....       LCALL   ??osal_memcpy?relay
   \   000058   7403         MOV     A,#0x3
   \   00005A   12....       LCALL   ?DEALLOC_XSTACK8
    179            name[name_size] = 0;
   \   00005D   E5..         MOV     A,?V0 + 0
   \   00005F   25..         ADD     A,?V0 + 2
   \   000061   F582         MOV     DPL,A
   \   000063   E5..         MOV     A,?V0 + 1
   \   000065   35..         ADDC    A,?V0 + 3
   \   000067   F583         MOV     DPH,A
   \   000069   E4           CLR     A
   \   00006A   F0           MOVX    @DPTR,A
    180            
    181            return name;
   \   00006B   AA..         MOV     R2,?V0 + 0
   \   00006D   AB..         MOV     R3,?V0 + 1
   \                     ??Util_GetNameFromCmd_3:
   \   00006F   02....       LJMP    ?Subroutine3 & 0xFFFF
    182          }
    183          

   \                                 In  segment BANKED_CODE, align 1, keep-with-next
    184          uint16 NameAddrCache_getAddrFromCmd(uint8* cmd)
   \                     NameAddrCache_getAddrFromCmd:
    185          {
   \   000000   74F4         MOV     A,#-0xc
   \   000002   12....       LCALL   ?BANKED_ENTER_XDATA
   \   000005                ; Saved register size: 12
   \   000005                ; Auto size: 0
    186            uint16 i;
    187            NameAddrCacheData_t* data;
    188            uint8* name;
    189            
    190            name = Util_GetNameFromCmd(cmd); 
   \   000005                ; Setup parameters for call to function Util_GetNameFromCmd
   \   000005   12....       LCALL   ??Util_GetNameFromCmd?relay
   \   000008   8A..         MOV     ?V0 + 0,R2
   \   00000A   8B..         MOV     ?V0 + 1,R3
   \   00000C   AE..         MOV     R6,?V0 + 0
   \   00000E   AF..         MOV     R7,?V0 + 1
    191            if (name == NULL)
   \   000010   EE           MOV     A,R6
   \   000011   4F           ORL     A,R7
   \   000012   6051         JZ      ??NameAddrCache_getAddrFromCmd_0
    192              return 0xFFFF;
    193            
    194            // find match data
    195            for (i = 0; i < NAME_ADDR_CACHE_SIZE; i++) {
   \   000014   75..00       MOV     ?V0 + 0,#0x0
   \   000017   75..00       MOV     ?V0 + 1,#0x0
    196               data = name_addr_cache[i];
   \                     ??NameAddrCache_getAddrFromCmd_1:
   \   00001A   E5..         MOV     A,?V0 + 0
   \   00001C   C3           CLR     C
   \   00001D   33           RLC     A
   \   00001E   F8           MOV     R0,A
   \   00001F   E5..         MOV     A,?V0 + 1
   \   000021   12....       LCALL   ?Subroutine12 & 0xFFFF
   \                     ??CrossCallReturnLabel_15:
   \   000024   E0           MOVX    A,@DPTR
   \   000025   F8           MOV     R0,A
   \   000026   A3           INC     DPTR
   \   000027   E0           MOVX    A,@DPTR
   \   000028   F9           MOV     R1,A
   \   000029   88..         MOV     ?V0 + 2,R0
   \   00002B   89..         MOV     ?V0 + 3,R1
    197               if (data == NULL)
   \   00002D   E8           MOV     A,R0
   \   00002E   45..         ORL     A,?V0 + 3
   \   000030   6015         JZ      ??NameAddrCache_getAddrFromCmd_2
    198                 continue;
    199               if (Util_StrEqual(name, data->name)) {
   \   000032                ; Setup parameters for call to function Util_StrEqual
   \   000032   8882         MOV     DPL,R0
   \   000034   8983         MOV     DPH,R1
   \   000036   12....       LCALL   ?Subroutine5 & 0xFFFF
   \                     ??CrossCallReturnLabel_4:
   \   000039   600C         JZ      ??NameAddrCache_getAddrFromCmd_2
    200                 osal_mem_free(name);
   \   00003B                ; Setup parameters for call to function osal_mem_free
   \   00003B   EE           MOV     A,R6
   \   00003C   FA           MOV     R2,A
   \   00003D   EF           MOV     A,R7
   \   00003E   FB           MOV     R3,A
   \   00003F   12....       LCALL   ??osal_mem_free?relay
    201                 return data->addr;
   \   000042   12....       LCALL   ?Subroutine6 & 0xFFFF
    202               }
    203            }
   \                     ??CrossCallReturnLabel_26:
   \   000045   8022         SJMP    ??NameAddrCache_getAddrFromCmd_3
   \                     ??NameAddrCache_getAddrFromCmd_2:
   \   000047   E5..         MOV     A,?V0 + 0
   \   000049   2401         ADD     A,#0x1
   \   00004B   F5..         MOV     ?V0 + 0,A
   \   00004D   E5..         MOV     A,?V0 + 1
   \   00004F   3400         ADDC    A,#0x0
   \   000051   F5..         MOV     ?V0 + 1,A
   \   000053   C3           CLR     C
   \   000054   E5..         MOV     A,?V0 + 0
   \   000056   9405         SUBB    A,#0x5
   \   000058   E5..         MOV     A,?V0 + 1
   \   00005A   9400         SUBB    A,#0x0
   \   00005C   40BC         JC      ??NameAddrCache_getAddrFromCmd_1
    204            
    205            osal_mem_free(name);
   \   00005E                ; Setup parameters for call to function osal_mem_free
   \   00005E   EE           MOV     A,R6
   \   00005F   FA           MOV     R2,A
   \   000060   EF           MOV     A,R7
   \   000061   FB           MOV     R3,A
   \   000062   12....       LCALL   ??osal_mem_free?relay
    206            // not find.
    207            return 0xFFFF;
   \                     ??NameAddrCache_getAddrFromCmd_0:
   \   000065   7AFF         MOV     R2,#-0x1
   \   000067   7BFF         MOV     R3,#-0x1
   \                     ??NameAddrCache_getAddrFromCmd_3:
   \   000069   7F04         MOV     R7,#0x4
   \   00006B   02....       LJMP    ?BANKED_LEAVE_XDATA
    208          }
    209          
    210          
    211          static uint16 findHexValue(uint8 ch);
    212          

   \                                 In  segment BANKED_CODE, align 1, keep-with-next
    213          uint16 findHexValue(uint8 ch)
   \                     findHexValue:
    214          {
   \   000000   74F6         MOV     A,#-0xa
   \   000002   12....       LCALL   ?BANKED_ENTER_XDATA
   \   000005                ; Saved register size: 10
   \   000005                ; Auto size: 0
    215            switch(ch) {
   \   000005   E9           MOV     A,R1
   \   000006   12....       LCALL   ?UC_SWITCH_SPARSE
   \                     `?<Jumptable for findHexValue>_0`:
   \   000009   03           DB        3
   \   00000A   30           DB        48
   \   00000B   39           DB        57
   \   00000C   ....         DW        ??findHexValue_0
   \   00000E   41           DB        65
   \   00000F   46           DB        70
   \   000010   ....         DW        ??findHexValue_1
   \   000012   61           DB        97
   \   000013   66           DB        102
   \   000014   ....         DW        ??findHexValue_2
   \   000016   00           DB        0
   \   000017   ....         DW        ??findHexValue_3
    216            case '0':
    217            case '1':
    218            case '2':
    219            case '3':
    220            case '4':
    221            case '5':
    222            case '6':
    223            case '7':
    224            case '8':
    225            case '9':
    226              return ch - '0';
   \                     ??findHexValue_0:
   \   000019   E9           MOV     A,R1
   \   00001A   24D0         ADD     A,#-0x30
   \                     ??findHexValue_4:
   \   00001C   FA           MOV     R2,A
   \   00001D   E4           CLR     A
   \   00001E   34FF         ADDC    A,#-0x1
   \   000020   FB           MOV     R3,A
   \   000021   8013         SJMP    ??findHexValue_5
    227            case 'A':
    228            case 'B':
    229            case 'C':
    230            case 'D':
    231            case 'E':
    232            case 'F':
    233              return ch - 'A' + 10;
   \                     ??findHexValue_1:
   \   000023   E9           MOV     A,R1
   \   000024   24C9         ADD     A,#-0x37
   \   000026   80F4         SJMP    ??findHexValue_4
    234            case 'a':
    235            case 'b':
    236            case 'c':
    237            case 'd':
    238            case 'e':
    239            case 'f':
    240              return ch - 'a' + 10;
   \                     ??findHexValue_2:
   \   000028   E9           MOV     A,R1
   \   000029   24A9         ADD     A,#-0x57
   \   00002B   FA           MOV     R2,A
   \   00002C   E4           CLR     A
   \   00002D   34FF         ADDC    A,#-0x1
   \   00002F   FB           MOV     R3,A
   \   000030   8004         SJMP    ??findHexValue_5
    241            }
    242            return 0;
   \                     ??findHexValue_3:
   \   000032   7A00         MOV     R2,#0x0
   \   000034   7B00         MOV     R3,#0x0
   \                     ??findHexValue_5:
   \   000036   02....       LJMP    ?Subroutine2 & 0xFFFF
    243          }
    244          
    245          

   \                                 In  segment BANKED_CODE, align 1, keep-with-next
    246          uint16 Util_Str2Uint16(uint8* str)
   \                     Util_Str2Uint16:
    247          {
   \   000000   74F0         MOV     A,#-0x10
   \   000002   12....       LCALL   ?BANKED_ENTER_XDATA
   \   000005                ; Saved register size: 16
   \   000005                ; Auto size: 0
   \   000005   8A..         MOV     ?V0 + 0,R2
   \   000007   8B..         MOV     ?V0 + 1,R3
    248              return findHexValue(str[0])*16*16*16 + findHexValue(str[1])*16*16 + findHexValue(str[2])*16 + findHexValue(str[3]);
   \   000009                ; Setup parameters for call to function findHexValue
   \   000009   8A82         MOV     DPL,R2
   \   00000B   8B83         MOV     DPH,R3
   \   00000D   12....       LCALL   ??Subroutine18_0 & 0xFFFF
   \                     ??CrossCallReturnLabel_30:
   \   000010   8A..         MOV     ?V0 + 4,R2
   \   000012   8B..         MOV     ?V0 + 5,R3
   \   000014                ; Setup parameters for call to function findHexValue
   \   000014   85..82       MOV     DPL,?V0 + 0
   \   000017   85..83       MOV     DPH,?V0 + 1
   \   00001A   12....       LCALL   ??Subroutine17_0 & 0xFFFF
   \                     ??CrossCallReturnLabel_29:
   \   00001D   8A..         MOV     ?V0 + 2,R2
   \   00001F   AE..         MOV     R6,?V0 + 2
   \   000021                ; Setup parameters for call to function findHexValue
   \   000021   85..82       MOV     DPL,?V0 + 0
   \   000024   85..83       MOV     DPH,?V0 + 1
   \   000027   12....       LCALL   ?Subroutine8 & 0xFFFF
   \                     ??CrossCallReturnLabel_27:
   \   00002A   8A..         MOV     ?V0 + 2,R2
   \   00002C   8B..         MOV     ?V0 + 3,R3
   \   00002E   740C         MOV     A,#0xc
   \   000030   78..         MOV     R0,#?V0 + 4
   \   000032   12....       LCALL   ?S_SHL
   \   000035   EE           MOV     A,R6
   \   000036   FF           MOV     R7,A
   \   000037   E4           CLR     A
   \   000038   2400         ADD     A,#0x0
   \   00003A   E5..         MOV     A,?V0 + 5
   \   00003C   3F           ADDC    A,R7
   \   00003D   FB           MOV     R3,A
   \   00003E   7404         MOV     A,#0x4
   \   000040   78..         MOV     R0,#?V0 + 2
   \   000042   12....       LCALL   ?S_SHL
   \   000045   25..         ADD     A,?V0 + 2
   \   000047   FE           MOV     R6,A
   \   000048   EB           MOV     A,R3
   \   000049   35..         ADDC    A,?V0 + 3
   \   00004B   FF           MOV     R7,A
   \   00004C                ; Setup parameters for call to function findHexValue
   \   00004C   85..82       MOV     DPL,?V0 + 0
   \   00004F   85..83       MOV     DPH,?V0 + 1
   \   000052   A3           INC     DPTR
   \   000053   12....       LCALL   ?Subroutine8 & 0xFFFF
   \                     ??CrossCallReturnLabel_28:
   \   000056   8A..         MOV     ?V0 + 0,R2
   \   000058   8B..         MOV     ?V0 + 1,R3
   \   00005A   EE           MOV     A,R6
   \   00005B   25..         ADD     A,?V0 + 0
   \   00005D   FA           MOV     R2,A
   \   00005E   EF           MOV     A,R7
   \   00005F   35..         ADDC    A,?V0 + 1
   \   000061   FB           MOV     R3,A
   \   000062   7F08         MOV     R7,#0x8
   \   000064   02....       LJMP    ?BANKED_LEAVE_XDATA
    249          }

   \                                 In  segment BANKED_CODE, align 1, keep-with-next
   \                     ?Subroutine8:
   \   000000   A3           INC     DPTR
   \   000001                REQUIRE ??Subroutine17_0
   \   000001                ; // Fall through to label ??Subroutine17_0

   \                                 In  segment BANKED_CODE, align 1, keep-with-next
   \                     ??Subroutine17_0:
   \   000000   A3           INC     DPTR
   \   000001                REQUIRE ??Subroutine18_0
   \   000001                ; // Fall through to label ??Subroutine18_0

   \                                 In  segment BANKED_CODE, align 1, keep-with-next
   \                     ??Subroutine18_0:
   \   000000   E0           MOVX    A,@DPTR
   \   000001   F9           MOV     R1,A
   \   000002   12....       LCALL   ??findHexValue?relay
   \   000005   22           RET
    250          
    251          
    252          

   \                                 In  segment BANKED_CODE, align 1, keep-with-next
    253          uint16 Util_Str2Dec(uint8 * str)
   \                     Util_Str2Dec:
    254          {
   \   000000   C082         PUSH    DPL
   \   000002   C083         PUSH    DPH
   \   000004                ; Saved register size: 2
   \   000004                ; Auto size: 0
    255            uint16 ret = 0;
   \   000004   7800         MOV     R0,#0x0
   \   000006   7900         MOV     R1,#0x0
   \   000008   8022         SJMP    ??Util_Str2Dec_0
    256            while (*str && (*str != ' ')) {
    257              ret = ret*10 + (*str - '0');
   \                     ??Util_Str2Dec_1:
   \   00000A   E8           MOV     A,R0
   \   00000B   75F00A       MOV     B,#0xa
   \   00000E   A4           MUL     AB
   \   00000F   F8           MOV     R0,A
   \   000010   ACF0         MOV     R4,B
   \   000012   75F00A       MOV     B,#0xa
   \   000015   E9           MOV     A,R1
   \   000016   A4           MUL     AB
   \   000017   2C           ADD     A,R4
   \   000018   F9           MOV     R1,A
   \   000019   E0           MOVX    A,@DPTR
   \   00001A   24D0         ADD     A,#-0x30
   \   00001C   FC           MOV     R4,A
   \   00001D   E4           CLR     A
   \   00001E   34FF         ADDC    A,#-0x1
   \   000020   FD           MOV     R5,A
   \   000021   E8           MOV     A,R0
   \   000022   2C           ADD     A,R4
   \   000023   F8           MOV     R0,A
   \   000024   E9           MOV     A,R1
   \   000025   3D           ADDC    A,R5
   \   000026   F9           MOV     R1,A
    258              str++;
   \   000027   A3           INC     DPTR
   \   000028   AA82         MOV     R2,DPL
   \   00002A   AB83         MOV     R3,DPH
    259            }
   \                     ??Util_Str2Dec_0:
   \   00002C   8A82         MOV     DPL,R2
   \   00002E   8B83         MOV     DPH,R3
   \   000030   E0           MOVX    A,@DPTR
   \   000031   6004         JZ      ??Util_Str2Dec_2
   \   000033   6420         XRL     A,#0x20
   \   000035   70D3         JNZ     ??Util_Str2Dec_1
    260            return ret;
   \                     ??Util_Str2Dec_2:
   \   000037   E8           MOV     A,R0
   \   000038   FA           MOV     R2,A
   \   000039   E9           MOV     A,R1
   \   00003A   FB           MOV     R3,A
   \   00003B   02....       LJMP    ?Subroutine1 & 0xFFFF
    261          }

   \                                 In  segment BANK_RELAYS, align 1
   \                     ??Util_ReadName?relay:
   \   000000   12....       LCALL   ?BDISPATCH
   \   000003   ......       DC24    Util_ReadName

   \                                 In  segment BANK_RELAYS, align 1
   \                     ??Util_WriteName?relay:
   \   000000   12....       LCALL   ?BDISPATCH
   \   000003   ......       DC24    Util_WriteName

   \                                 In  segment BANK_RELAYS, align 1
   \                     ??Util_StartWith?relay:
   \   000000   12....       LCALL   ?BDISPATCH
   \   000003   ......       DC24    Util_StartWith

   \                                 In  segment BANK_RELAYS, align 1
   \                     ??Util_StrEqual?relay:
   \   000000   12....       LCALL   ?BDISPATCH
   \   000003   ......       DC24    Util_StrEqual

   \                                 In  segment BANK_RELAYS, align 1
   \                     ??NameAddrCache_delete?relay:
   \   000000   12....       LCALL   ?BDISPATCH
   \   000003   ......       DC24    NameAddrCache_delete

   \                                 In  segment BANK_RELAYS, align 1
   \                     ??NameAddrCache_put?relay:
   \   000000   12....       LCALL   ?BDISPATCH
   \   000003   ......       DC24    NameAddrCache_put

   \                                 In  segment BANK_RELAYS, align 1
   \                     ??Util_GetNameFromCmd?relay:
   \   000000   12....       LCALL   ?BDISPATCH
   \   000003   ......       DC24    Util_GetNameFromCmd

   \                                 In  segment BANK_RELAYS, align 1
   \                     ??NameAddrCache_getAddrFromCmd?relay:
   \   000000   12....       LCALL   ?BDISPATCH
   \   000003   ......       DC24    NameAddrCache_getAddrFromCmd

   \                                 In  segment BANK_RELAYS, align 1
   \                     ??findHexValue?relay:
   \   000000   12....       LCALL   ?BDISPATCH
   \   000003   ......       DC24    findHexValue

   \                                 In  segment BANK_RELAYS, align 1
   \                     ??Util_Str2Uint16?relay:
   \   000000   12....       LCALL   ?BDISPATCH
   \   000003   ......       DC24    Util_Str2Uint16

   \                                 In  segment BANK_RELAYS, align 1
   \                     ??Util_Str2Dec?relay:
   \   000000   12....       LCALL   ?BDISPATCH
   \   000003   ......       DC24    Util_Str2Dec

   \                                 In  segment XDATA_ROM_C, align 1
   \                     `?<Constant "Unkown">`:
   \   000000   556E6B6F     DB "Unkown"
   \            776E00  

   Maximum stack usage in bytes:

     Function                     ISTACK PSTACK XSTACK
     --------                     ------ ------ ------
     NameAddrCache_delete             0      0     10
       -> osal_mem_free               0      0     20
     NameAddrCache_getAddrFromCmd     0      0     12
       -> Util_GetNameFromCmd         0      0     24
       -> Util_StrEqual               0      0     24
       -> osal_mem_free               0      0     24
       -> osal_mem_free               0      0     24
     NameAddrCache_put                0      0     18
       -> Util_StrEqual               0      0     30
       -> osal_mem_free               0      0     30
       -> osal_mem_free               0      0     30
       -> osal_strlen                 0      0     30
       -> osal_mem_alloc              0      0     30
       -> osal_strlen                 0      0     30
       -> osal_memcpy                 0      0     36
     Util_GetNameFromCmd              0      0     30
       -> osal_mem_alloc              0      0     30
       -> osal_memcpy                 0      0     36
     Util_ReadName                    0      0     18
       -> osal_nv_item_len            0      0     28
       -> osal_mem_alloc              0      0     28
       -> osal_nv_item_init           0      0     32
       -> osal_nv_read                0      0     36
       -> osal_mem_free               0      0     28
     Util_StartWith                   2      0      0
     Util_Str2Dec                     2      0      0
     Util_Str2Uint16                  0      0     16
       -> findHexValue                0      0     32
       -> findHexValue                0      0     32
       -> findHexValue                0      0     32
       -> findHexValue                0      0     32
     Util_StrEqual                    2      0     15
     Util_WriteName                   0      0     18
       -> osal_nv_item_init           0      0     32
       -> osal_nv_write               0      0     36
       -> osal_mem_free               0      0     28
     findHexValue                     0      0     26


   Segment part sizes:

     Function/Label                       Bytes
     --------------                       -----
     application_name                        2
     Util_ReadName                         153
     ?Subroutine0                            5
     ?Subroutine13                           3
     ??Subroutine15_0                        7
     ??Subroutine16_0                        6
     Util_WriteName                         85
     Util_StartWith                         42
     ?Subroutine1                            7
     ?Subroutine10                          13
     Util_StrEqual                          60
     name_addr_cache                        10
     name_addr_cache_idx                     2
     NameAddrCache_delete                   79
     ?Subroutine2                            5
     ?Subroutine12                           4
     ?Subroutine11                           8
     ?Subroutine14                          13
     ?Subroutine6                            6
     NameAddrCache_put                     254
     ?Subroutine3                            5
     ?Subroutine7                           12
     ?Subroutine4                           14
     ?Subroutine9                           11
     ?Subroutine5                           16
     Util_GetNameFromCmd                   114
     NameAddrCache_getAddrFromCmd          110
     findHexValue                           57
     Util_Str2Uint16                       103
     ?Subroutine8                            1
     ??Subroutine17_0                        1
     ??Subroutine18_0                        6
     Util_Str2Dec                           62
     ??Util_ReadName?relay                   6
     ??Util_WriteName?relay                  6
     ??Util_StartWith?relay                  6
     ??Util_StrEqual?relay                   6
     ??NameAddrCache_delete?relay            6
     ??NameAddrCache_put?relay               6
     ??Util_GetNameFromCmd?relay             6
     ??NameAddrCache_getAddrFromCmd?relay    6
     ??findHexValue?relay                    6
     ??Util_Str2Uint16?relay                 6
     ??Util_Str2Dec?relay                    6
     ?<Constant "Unkown">                    7

 
 1 262 bytes in segment BANKED_CODE
    66 bytes in segment BANK_RELAYS
     7 bytes in segment XDATA_ROM_C
    14 bytes in segment XDATA_Z
 
 1 328 bytes of CODE  memory
     7 bytes of CONST memory
    14 bytes of XDATA memory

Errors: none
Warnings: none
